   1               		.file	"main.c"
   2               	__SREG__ = 0x3f
   3               	__SP_H__ = 0x3e
   4               	__SP_L__ = 0x3d
   5               	__CCP__  = 0x34
   6               	__tmp_reg__ = 0
   7               	__zero_reg__ = 1
  15               	.Ltext0:
  16               	.global	port_init
  18               	port_init:
  19               	.LFB7:
  20               	.LM1:
  21               	/* prologue: function */
  22               	/* frame size = 0 */
  23               	.LM2:
  24 0000 8FEF      		ldi r24,lo8(-1)
  25 0002 8BBB      		out 59-32,r24
  26               	.LM3:
  27 0004 1ABA      		out 58-32,__zero_reg__
  28               	.LM4:
  29 0006 88BB      		out 56-32,r24
  30               	.LM5:
  31 0008 17BA      		out 55-32,__zero_reg__
  32               	.LM6:
  33 000a 15BA      		out 53-32,__zero_reg__
  34               	.LM7:
  35 000c 84BB      		out 52-32,r24
  36               	.LM8:
  37 000e 82BB      		out 50-32,r24
  38               	.LM9:
  39 0010 11BA      		out 49-32,__zero_reg__
  40               	/* epilogue start */
  41               	.LM10:
  42 0012 0895      		ret
  43               	.LFE7:
  45               	.global	pwm1_init
  47               	pwm1_init:
  48               	.LFB8:
  49               	.LM11:
  50               	/* prologue: function */
  51               	/* frame size = 0 */
  52               	.LM12:
  53 0014 8C9A      		sbi 49-32,4
  54               	.LM13:
  55 0016 8D9A      		sbi 49-32,5
  56               	.LM14:
  57 0018 1EBC      		out 78-32,__zero_reg__
  58               	.LM15:
  59 001a 1DBC      		out 77-32,__zero_reg__
  60               	.LM16:
  61 001c 1CBC      		out 76-32,__zero_reg__
  62               	.LM17:
  63 001e 1BBC      		out 75-32,__zero_reg__
  64               	.LM18:
  65 0020 1ABC      		out 74-32,__zero_reg__
  66               	.LM19:
  67 0022 19BC      		out 73-32,__zero_reg__
  68               	.LM20:
  69 0024 18BC      		out 72-32,__zero_reg__
  70               	.LM21:
  71 0026 81E0      		ldi r24,lo8(1)
  72 0028 87BD      		out 71-32,r24
  73               	.LM22:
  74 002a 8FE8      		ldi r24,lo8(-113)
  75 002c 86BD      		out 70-32,r24
  76               	.LM23:
  77 002e 82EA      		ldi r24,lo8(-94)
  78 0030 8FBD      		out 79-32,r24
  79               	.LM24:
  80 0032 89E1      		ldi r24,lo8(25)
  81 0034 8EBD      		out 78-32,r24
  82               	/* epilogue start */
  83               	.LM25:
  84 0036 0895      		ret
  85               	.LFE8:
  87               	.global	adc_init
  89               	adc_init:
  90               	.LFB9:
  91               	.LM26:
  92               	/* prologue: function */
  93               	/* frame size = 0 */
  94               	.LM27:
  95 0038 1ABA      		out 58-32,__zero_reg__
  96               	.LM28:
  97 003a 16B8      		out 38-32,__zero_reg__
  98               	.LM29:
  99 003c 80E6      		ldi r24,lo8(96)
 100 003e 87B9      		out 39-32,r24
 101               	.LM30:
 102 0040 87E8      		ldi r24,lo8(-121)
 103 0042 86B9      		out 38-32,r24
 104               	.LM31:
 105 0044 80E8      		ldi r24,lo8(-128)
 106 0046 88B9      		out 40-32,r24
 107               	/* epilogue start */
 108               	.LM32:
 109 0048 0895      		ret
 110               	.LFE9:
 112               	.global	adc_start
 114               	adc_start:
 115               	.LFB10:
 116               	.LM33:
 117               	.LVL0:
 118               	/* prologue: function */
 119               	/* frame size = 0 */
 120               	.LM34:
 121 004a 15B8      		out 37-32,__zero_reg__
 122               	.LM35:
 123 004c 8770      		andi r24,lo8(7)
 124               	.LVL1:
 125 004e 8066      		ori r24,lo8(96)
 126 0050 87B9      		out 39-32,r24
 127               	.LM36:
 128 0052 369A      		sbi 38-32,6
 129               	.L8:
 130               	.LM37:
 131 0054 3699      		sbic 38-32,6
 132 0056 00C0      		rjmp .L8
 133               	.LM38:
 134 0058 85B1      		in r24,37-32
 135               	.LVL2:
 136               	.LVL3:
 137               	/* epilogue start */
 138               	.LM39:
 139 005a 0895      		ret
 140               	.LFE10:
 142               	.global	delay_sec
 144               	delay_sec:
 145               	.LFB11:
 146               	.LM40:
 147               	.LVL4:
 148               	/* prologue: function */
 149               	/* frame size = 0 */
 150 005c AC01      		movw r20,r24
 151               	.LM41:
 152 005e 30E0      		ldi r19,lo8(0)
 153               	.LVL5:
 154               	.LBB202:
 155               	.LBB203:
 156               	.LBB204:
 157               	.LBB205:
 158               	.LM42:
 159 0060 60E9      		ldi r22,lo8(400)
 160 0062 71E0      		ldi r23,hi8(400)
 161 0064 00C0      		rjmp .L12
 162               	.LVL6:
 163               	.L13:
 164 0066 FB01      		movw r30,r22
 165               	/* #APP */
 166               	 ;  105 "c:/winavr-20100110/lib/gcc/../../avr/include/util/delay_basic.h" 1
 167 0068 3197      		1: sbiw r30,1
 168 006a 01F4      		brne 1b
 169               	 ;  0 "" 2
 170               	/* #NOAPP */
 171               	.LBE205:
 172               	.LBE204:
 173               	.LM43:
 174 006c 0197      		sbiw r24,1
 175               	.LM44:
 176 006e 01F4      		brne .L13
 177               	.LBE203:
 178               	.LBE202:
 179               	.LM45:
 180 0070 2F5F      		subi r18,lo8(-(1))
 181 0072 2430      		cpi r18,lo8(4)
 182 0074 01F0      		breq .L14
 183               	.LVL7:
 184               	.L16:
 185 0076 84EC      		ldi r24,lo8(2500)
 186 0078 99E0      		ldi r25,hi8(2500)
 187 007a 00C0      		rjmp .L13
 188               	.L14:
 189               	.LM46:
 190 007c 3F5F      		subi r19,lo8(-(1))
 191               	.LVL8:
 192               	.L12:
 193 007e 832F      		mov r24,r19
 194               	.LVL9:
 195 0080 90E0      		ldi r25,lo8(0)
 196 0082 8417      		cp r24,r20
 197 0084 9507      		cpc r25,r21
 198 0086 04F4      		brge .L17
 199               	.LVL10:
 200 0088 20E0      		ldi r18,lo8(0)
 201 008a 00C0      		rjmp .L16
 202               	.L17:
 203 008c 0895      		ret
 204               	.LFE11:
 206               	.global	delay_millisec
 208               	delay_millisec:
 209               	.LFB12:
 210               	.LM47:
 211               	.LVL11:
 212 008e AF92      		push r10
 213 0090 BF92      		push r11
 214 0092 CF92      		push r12
 215 0094 DF92      		push r13
 216 0096 EF92      		push r14
 217 0098 FF92      		push r15
 218 009a 0F93      		push r16
 219 009c 1F93      		push r17
 220               	/* prologue: function */
 221               	/* frame size = 0 */
 222               	.LM48:
 223 009e AA27      		clr r26
 224 00a0 97FD      		sbrc r25,7
 225 00a2 A095      		com r26
 226 00a4 BA2F      		mov r27,r26
 227               	.LVL12:
 228 00a6 BC01      		movw r22,r24
 229 00a8 CD01      		movw r24,r26
 230 00aa 0E94 0000 		call __floatsisf
 231               	.LVL13:
 232 00ae 5B01      		movw r10,r22
 233 00b0 6C01      		movw r12,r24
 234               	.LBB206:
 235               	.LBB207:
 236               	.LM49:
 237 00b2 20E0      		ldi r18,lo8(0x457a0000)
 238 00b4 30E0      		ldi r19,hi8(0x457a0000)
 239 00b6 4AE7      		ldi r20,hlo8(0x457a0000)
 240 00b8 55E4      		ldi r21,hhi8(0x457a0000)
 241 00ba 0E94 0000 		call __mulsf3
 242 00be 7B01      		movw r14,r22
 243 00c0 8C01      		movw r16,r24
 244               	.LM50:
 245 00c2 20E0      		ldi r18,lo8(0x3f800000)
 246 00c4 30E0      		ldi r19,hi8(0x3f800000)
 247 00c6 40E8      		ldi r20,hlo8(0x3f800000)
 248 00c8 5FE3      		ldi r21,hhi8(0x3f800000)
 249 00ca 0E94 0000 		call __ltsf2
 250 00ce 8823      		tst r24
 251 00d0 04F4      		brge .L31
 252 00d2 61E0      		ldi r22,lo8(1)
 253 00d4 70E0      		ldi r23,hi8(1)
 254               	.LVL14:
 255 00d6 00C0      		rjmp .L22
 256               	.LVL15:
 257               	.L31:
 258               	.LM51:
 259 00d8 C801      		movw r24,r16
 260 00da B701      		movw r22,r14
 261 00dc 20E0      		ldi r18,lo8(0x477fff00)
 262 00de 3FEF      		ldi r19,hi8(0x477fff00)
 263 00e0 4FE7      		ldi r20,hlo8(0x477fff00)
 264 00e2 57E4      		ldi r21,hhi8(0x477fff00)
 265 00e4 0E94 0000 		call __gtsf2
 266 00e8 1816      		cp __zero_reg__,r24
 267 00ea 04F4      		brge .L32
 268               	.LM52:
 269 00ec C601      		movw r24,r12
 270 00ee B501      		movw r22,r10
 271 00f0 20E0      		ldi r18,lo8(0x41200000)
 272 00f2 30E0      		ldi r19,hi8(0x41200000)
 273 00f4 40E2      		ldi r20,hlo8(0x41200000)
 274 00f6 51E4      		ldi r21,hhi8(0x41200000)
 275 00f8 0E94 0000 		call __mulsf3
 276 00fc 0E94 0000 		call __fixunssfsi
 277               	.LBB208:
 278               	.LBB209:
 279               	.LM53:
 280 0100 80E9      		ldi r24,lo8(400)
 281 0102 91E0      		ldi r25,hi8(400)
 282 0104 00C0      		rjmp .L25
 283               	.LVL16:
 284               	.L26:
 285 0106 FC01      		movw r30,r24
 286               	/* #APP */
 287               	 ;  105 "c:/winavr-20100110/lib/gcc/../../avr/include/util/delay_basic.h" 1
 288 0108 3197      		1: sbiw r30,1
 289 010a 01F4      		brne 1b
 290               	 ;  0 "" 2
 291               	/* #NOAPP */
 292               	.LBE209:
 293               	.LBE208:
 294               	.LM54:
 295 010c 6150      		subi r22,lo8(-(-1))
 296 010e 7040      		sbci r23,hi8(-(-1))
 297               	.L25:
 298               	.LM55:
 299 0110 6115      		cp r22,__zero_reg__
 300 0112 7105      		cpc r23,__zero_reg__
 301 0114 01F4      		brne .L26
 302 0116 00C0      		rjmp .L28
 303               	.LVL17:
 304               	.L32:
 305               	.LM56:
 306 0118 C801      		movw r24,r16
 307 011a B701      		movw r22,r14
 308 011c 0E94 0000 		call __fixunssfsi
 309               	.LVL18:
 310               	.L22:
 311               	.LBB210:
 312               	.LBB211:
 313               	.LM57:
 314 0120 CB01      		movw r24,r22
 315               	.LVL19:
 316               	/* #APP */
 317               	 ;  105 "c:/winavr-20100110/lib/gcc/../../avr/include/util/delay_basic.h" 1
 318 0122 0197      		1: sbiw r24,1
 319 0124 01F4      		brne 1b
 320               	 ;  0 "" 2
 321               	.LVL20:
 322               	/* #NOAPP */
 323               	.L28:
 324               	/* epilogue start */
 325               	.LBE211:
 326               	.LBE210:
 327               	.LBE207:
 328               	.LBE206:
 329               	.LM58:
 330 0126 1F91      		pop r17
 331 0128 0F91      		pop r16
 332 012a FF90      		pop r15
 333 012c EF90      		pop r14
 334 012e DF90      		pop r13
 335 0130 CF90      		pop r12
 336 0132 BF90      		pop r11
 337 0134 AF90      		pop r10
 338 0136 0895      		ret
 339               	.LFE12:
 341               	.global	delay_microsec
 343               	delay_microsec:
 344               	.LFB13:
 345               	.LM59:
 346               	.LVL21:
 347 0138 AF92      		push r10
 348 013a BF92      		push r11
 349 013c CF92      		push r12
 350 013e DF92      		push r13
 351 0140 EF92      		push r14
 352 0142 FF92      		push r15
 353 0144 0F93      		push r16
 354 0146 1F93      		push r17
 355               	/* prologue: function */
 356               	/* frame size = 0 */
 357               	.LM60:
 358 0148 AA27      		clr r26
 359 014a 97FD      		sbrc r25,7
 360 014c A095      		com r26
 361 014e BA2F      		mov r27,r26
 362               	.LVL22:
 363 0150 BC01      		movw r22,r24
 364 0152 CD01      		movw r24,r26
 365 0154 0E94 0000 		call __floatsisf
 366               	.LVL23:
 367 0158 5B01      		movw r10,r22
 368 015a 6C01      		movw r12,r24
 369               	.LBB212:
 370               	.LBB213:
 371               	.LM61:
 372 015c 2BEA      		ldi r18,lo8(0x40aaaaab)
 373 015e 3AEA      		ldi r19,hi8(0x40aaaaab)
 374 0160 4AEA      		ldi r20,hlo8(0x40aaaaab)
 375 0162 50E4      		ldi r21,hhi8(0x40aaaaab)
 376 0164 0E94 0000 		call __mulsf3
 377 0168 7B01      		movw r14,r22
 378 016a 8C01      		movw r16,r24
 379               	.LM62:
 380 016c 20E0      		ldi r18,lo8(0x3f800000)
 381 016e 30E0      		ldi r19,hi8(0x3f800000)
 382 0170 40E8      		ldi r20,hlo8(0x3f800000)
 383 0172 5FE3      		ldi r21,hhi8(0x3f800000)
 384 0174 0E94 0000 		call __ltsf2
 385 0178 8823      		tst r24
 386 017a 04F4      		brge .L52
 387 017c 61E0      		ldi r22,lo8(1)
 388               	.LVL24:
 389 017e 00C0      		rjmp .L36
 390               	.LVL25:
 391               	.L52:
 392               	.LM63:
 393 0180 C801      		movw r24,r16
 394 0182 B701      		movw r22,r14
 395 0184 20E0      		ldi r18,lo8(0x437f0000)
 396 0186 30E0      		ldi r19,hi8(0x437f0000)
 397 0188 4FE7      		ldi r20,hlo8(0x437f0000)
 398 018a 53E4      		ldi r21,hhi8(0x437f0000)
 399 018c 0E94 0000 		call __gtsf2
 400 0190 1816      		cp __zero_reg__,r24
 401 0192 04F0      		brlt .+2
 402 0194 00C0      		rjmp .L53
 403               	.LM64:
 404 0196 C601      		movw r24,r12
 405 0198 B501      		movw r22,r10
 406 019a 20E0      		ldi r18,lo8(0x447a0000)
 407 019c 30E0      		ldi r19,hi8(0x447a0000)
 408 019e 4AE7      		ldi r20,hlo8(0x447a0000)
 409 01a0 54E4      		ldi r21,hhi8(0x447a0000)
 410 01a2 0E94 0000 		call __divsf3
 411 01a6 5B01      		movw r10,r22
 412 01a8 6C01      		movw r12,r24
 413               	.LBB214:
 414               	.LBB215:
 415               	.LM65:
 416 01aa 20E0      		ldi r18,lo8(0x457a0000)
 417 01ac 30E0      		ldi r19,hi8(0x457a0000)
 418 01ae 4AE7      		ldi r20,hlo8(0x457a0000)
 419 01b0 55E4      		ldi r21,hhi8(0x457a0000)
 420 01b2 0E94 0000 		call __mulsf3
 421 01b6 7B01      		movw r14,r22
 422 01b8 8C01      		movw r16,r24
 423               	.LM66:
 424 01ba 20E0      		ldi r18,lo8(0x3f800000)
 425 01bc 30E0      		ldi r19,hi8(0x3f800000)
 426 01be 40E8      		ldi r20,hlo8(0x3f800000)
 427 01c0 5FE3      		ldi r21,hhi8(0x3f800000)
 428 01c2 0E94 0000 		call __ltsf2
 429 01c6 8823      		tst r24
 430 01c8 04F4      		brge .L54
 431 01ca 61E0      		ldi r22,lo8(1)
 432 01cc 70E0      		ldi r23,hi8(1)
 433               	.LVL26:
 434 01ce 00C0      		rjmp .L41
 435               	.LVL27:
 436               	.L54:
 437               	.LM67:
 438 01d0 C801      		movw r24,r16
 439 01d2 B701      		movw r22,r14
 440 01d4 20E0      		ldi r18,lo8(0x477fff00)
 441 01d6 3FEF      		ldi r19,hi8(0x477fff00)
 442 01d8 4FE7      		ldi r20,hlo8(0x477fff00)
 443 01da 57E4      		ldi r21,hhi8(0x477fff00)
 444 01dc 0E94 0000 		call __gtsf2
 445 01e0 1816      		cp __zero_reg__,r24
 446 01e2 04F4      		brge .L55
 447               	.LM68:
 448 01e4 C601      		movw r24,r12
 449 01e6 B501      		movw r22,r10
 450 01e8 20E0      		ldi r18,lo8(0x41200000)
 451 01ea 30E0      		ldi r19,hi8(0x41200000)
 452 01ec 40E2      		ldi r20,hlo8(0x41200000)
 453 01ee 51E4      		ldi r21,hhi8(0x41200000)
 454 01f0 0E94 0000 		call __mulsf3
 455 01f4 0E94 0000 		call __fixunssfsi
 456               	.LBB216:
 457               	.LBB217:
 458               	.LM69:
 459 01f8 80E9      		ldi r24,lo8(400)
 460 01fa 91E0      		ldi r25,hi8(400)
 461 01fc 00C0      		rjmp .L44
 462               	.LVL28:
 463               	.L45:
 464 01fe FC01      		movw r30,r24
 465               	/* #APP */
 466               	 ;  105 "c:/winavr-20100110/lib/gcc/../../avr/include/util/delay_basic.h" 1
 467 0200 3197      		1: sbiw r30,1
 468 0202 01F4      		brne 1b
 469               	 ;  0 "" 2
 470               	/* #NOAPP */
 471               	.LBE217:
 472               	.LBE216:
 473               	.LM70:
 474 0204 6150      		subi r22,lo8(-(-1))
 475 0206 7040      		sbci r23,hi8(-(-1))
 476               	.L44:
 477               	.LM71:
 478 0208 6115      		cp r22,__zero_reg__
 479 020a 7105      		cpc r23,__zero_reg__
 480 020c 01F4      		brne .L45
 481 020e 00C0      		rjmp .L47
 482               	.LVL29:
 483               	.L55:
 484               	.LM72:
 485 0210 C801      		movw r24,r16
 486 0212 B701      		movw r22,r14
 487 0214 0E94 0000 		call __fixunssfsi
 488               	.LVL30:
 489               	.L41:
 490               	.LBB218:
 491               	.LBB219:
 492               	.LM73:
 493 0218 CB01      		movw r24,r22
 494               	.LVL31:
 495               	/* #APP */
 496               	 ;  105 "c:/winavr-20100110/lib/gcc/../../avr/include/util/delay_basic.h" 1
 497 021a 0197      		1: sbiw r24,1
 498 021c 01F4      		brne 1b
 499               	 ;  0 "" 2
 500               	/* #NOAPP */
 501 021e 00C0      		rjmp .L47
 502               	.LVL32:
 503               	.L53:
 504               	.LBE219:
 505               	.LBE218:
 506               	.LBE215:
 507               	.LBE214:
 508               	.LM74:
 509 0220 C801      		movw r24,r16
 510 0222 B701      		movw r22,r14
 511 0224 0E94 0000 		call __fixunssfsi
 512               	.LVL33:
 513               	.L36:
 514               	.LBB220:
 515               	.LBB221:
 516               	.LM75:
 517               	/* #APP */
 518               	 ;  83 "c:/winavr-20100110/lib/gcc/../../avr/include/util/delay_basic.h" 1
 519 0228 6A95      		1: dec r22
 520 022a 01F4      		brne 1b
 521               	 ;  0 "" 2
 522               	.LVL34:
 523               	/* #NOAPP */
 524               	.L47:
 525               	/* epilogue start */
 526               	.LBE221:
 527               	.LBE220:
 528               	.LBE213:
 529               	.LBE212:
 530               	.LM76:
 531 022c 1F91      		pop r17
 532 022e 0F91      		pop r16
 533 0230 FF90      		pop r15
 534 0232 EF90      		pop r14
 535 0234 DF90      		pop r13
 536 0236 CF90      		pop r12
 537 0238 BF90      		pop r11
 538 023a AF90      		pop r10
 539 023c 0895      		ret
 540               	.LFE13:
 542               	.global	check_sensors
 544               	check_sensors:
 545               	.LFB14:
 546               	.LM77:
 547 023e EF92      		push r14
 548 0240 FF92      		push r15
 549 0242 1F93      		push r17
 550 0244 CF93      		push r28
 551 0246 DF93      		push r29
 552               	/* prologue: function */
 553               	/* frame size = 0 */
 554               	.LM78:
 555 0248 1092 0000 		sts sensorbyte,__zero_reg__
 556 024c C0E0      		ldi r28,lo8(0)
 557 024e D0E0      		ldi r29,hi8(0)
 558               	.LM79:
 559 0250 81E0      		ldi r24,lo8(1)
 560 0252 E82E      		mov r14,r24
 561 0254 F12C      		mov r15,__zero_reg__
 562               	.L58:
 563               	.LM80:
 564 0256 8C2F      		mov r24,r28
 565 0258 0E94 0000 		call adc_start
 566               	.LM81:
 567 025c FE01      		movw r30,r28
 568 025e E050      		subi r30,lo8(-(threshold))
 569 0260 F040      		sbci r31,hi8(-(threshold))
 570 0262 9081      		ld r25,Z
 571 0264 9817      		cp r25,r24
 572 0266 00F4      		brsh .L57
 573               	.LM82:
 574 0268 9701      		movw r18,r14
 575 026a 0C2E      		mov r0,r28
 576 026c 00C0      		rjmp 2f
 577 026e 220F      	1:	lsl r18
 578 0270 331F      		rol r19
 579 0272 0A94      	2:	dec r0
 580 0274 02F4      		brpl 1b
 581 0276 8091 0000 		lds r24,sensorbyte
 582 027a 822B      		or r24,r18
 583 027c 8093 0000 		sts sensorbyte,r24
 584               	.L57:
 585 0280 2196      		adiw r28,1
 586               	.LM83:
 587 0282 C430      		cpi r28,4
 588 0284 D105      		cpc r29,__zero_reg__
 589 0286 01F4      		brne .L58
 590               	/* epilogue start */
 591               	.LM84:
 592 0288 DF91      		pop r29
 593 028a CF91      		pop r28
 594 028c 1F91      		pop r17
 595 028e FF90      		pop r15
 596 0290 EF90      		pop r14
 597 0292 0895      		ret
 598               	.LFE14:
 600               	.global	calibrate_black
 602               	calibrate_black:
 603               	.LFB15:
 604               	.LM85:
 605 0294 0F93      		push r16
 606 0296 1F93      		push r17
 607 0298 CF93      		push r28
 608 029a DF93      		push r29
 609               	/* prologue: function */
 610               	/* frame size = 0 */
 611               	.LM86:
 612 029c C0E0      		ldi r28,lo8(max)
 613 029e D0E0      		ldi r29,hi8(max)
 614 02a0 00E0      		ldi r16,lo8(0)
 615               	.LVL35:
 616               	.L64:
 617               	.LM87:
 618 02a2 802F      		mov r24,r16
 619 02a4 0E94 0000 		call adc_start
 620 02a8 8883      		st Y,r24
 621 02aa 10E0      		ldi r17,lo8(0)
 622               	.L63:
 623               	.LM88:
 624 02ac 802F      		mov r24,r16
 625 02ae 0E94 0000 		call adc_start
 626 02b2 982F      		mov r25,r24
 627               	.LM89:
 628 02b4 8881      		ld r24,Y
 629 02b6 8917      		cp r24,r25
 630 02b8 00F4      		brsh .L62
 631               	.LM90:
 632 02ba 9883      		st Y,r25
 633               	.L62:
 634               	.LM91:
 635 02bc 1F5F      		subi r17,lo8(-(1))
 636 02be 1A30      		cpi r17,lo8(10)
 637 02c0 01F4      		brne .L63
 638               	.LM92:
 639 02c2 0F5F      		subi r16,lo8(-(1))
 640 02c4 2196      		adiw r28,1
 641 02c6 0430      		cpi r16,lo8(4)
 642 02c8 01F4      		brne .L64
 643               	/* epilogue start */
 644               	.LM93:
 645 02ca DF91      		pop r29
 646 02cc CF91      		pop r28
 647 02ce 1F91      		pop r17
 648               	.LVL36:
 649 02d0 0F91      		pop r16
 650               	.LVL37:
 651 02d2 0895      		ret
 652               	.LFE15:
 654               	.global	calibrate_white
 656               	calibrate_white:
 657               	.LFB16:
 658               	.LM94:
 659 02d4 0F93      		push r16
 660 02d6 1F93      		push r17
 661 02d8 CF93      		push r28
 662 02da DF93      		push r29
 663               	/* prologue: function */
 664               	/* frame size = 0 */
 665               	.LM95:
 666 02dc C0E0      		ldi r28,lo8(min)
 667 02de D0E0      		ldi r29,hi8(min)
 668 02e0 00E0      		ldi r16,lo8(0)
 669               	.LVL38:
 670               	.L71:
 671               	.LM96:
 672 02e2 802F      		mov r24,r16
 673 02e4 0E94 0000 		call adc_start
 674 02e8 8883      		st Y,r24
 675 02ea 10E0      		ldi r17,lo8(0)
 676               	.L70:
 677               	.LM97:
 678 02ec 802F      		mov r24,r16
 679 02ee 0E94 0000 		call adc_start
 680 02f2 982F      		mov r25,r24
 681               	.LM98:
 682 02f4 8881      		ld r24,Y
 683 02f6 9817      		cp r25,r24
 684 02f8 00F4      		brsh .L69
 685               	.LM99:
 686 02fa 9883      		st Y,r25
 687               	.L69:
 688               	.LM100:
 689 02fc 1F5F      		subi r17,lo8(-(1))
 690 02fe 1A30      		cpi r17,lo8(10)
 691 0300 01F4      		brne .L70
 692               	.LM101:
 693 0302 0F5F      		subi r16,lo8(-(1))
 694 0304 2196      		adiw r28,1
 695 0306 0430      		cpi r16,lo8(4)
 696 0308 01F4      		brne .L71
 697               	/* epilogue start */
 698               	.LM102:
 699 030a DF91      		pop r29
 700 030c CF91      		pop r28
 701 030e 1F91      		pop r17
 702               	.LVL39:
 703 0310 0F91      		pop r16
 704               	.LVL40:
 705 0312 0895      		ret
 706               	.LFE16:
 708               	.global	flick
 710               	flick:
 711               	.LFB18:
 712               	.LM103:
 713 0314 1F93      		push r17
 714 0316 CF93      		push r28
 715 0318 DF93      		push r29
 716               	/* prologue: function */
 717               	/* frame size = 0 */
 718               	.LM104:
 719 031a C0E0      		ldi r28,lo8(0)
 720 031c D0E0      		ldi r29,hi8(0)
 721               	.LVL41:
 722               	.LM105:
 723 031e 1FEF      		ldi r17,lo8(-1)
 724               	.L76:
 725 0320 15BB      		out 53-32,r17
 726               	.LM106:
 727 0322 84E6      		ldi r24,lo8(100)
 728 0324 90E0      		ldi r25,hi8(100)
 729 0326 0E94 0000 		call delay_millisec
 730               	.LM107:
 731 032a 15BA      		out 53-32,__zero_reg__
 732               	.LM108:
 733 032c 84E6      		ldi r24,lo8(100)
 734 032e 90E0      		ldi r25,hi8(100)
 735 0330 0E94 0000 		call delay_millisec
 736               	.LM109:
 737 0334 2196      		adiw r28,1
 738 0336 C530      		cpi r28,5
 739 0338 D105      		cpc r29,__zero_reg__
 740 033a 01F4      		brne .L76
 741               	/* epilogue start */
 742               	.LM110:
 743 033c DF91      		pop r29
 744 033e CF91      		pop r28
 745               	.LVL42:
 746 0340 1F91      		pop r17
 747 0342 0895      		ret
 748               	.LFE18:
 750               	.global	set_pwm1a
 752               	set_pwm1a:
 753               	.LFB19:
 754               	.LM111:
 755               	.LVL43:
 756               	/* prologue: function */
 757               	/* frame size = 0 */
 758               	.LM112:
 759 0344 9BBD      		out (74)+1-32,r25
 760 0346 8ABD      		out 74-32,r24
 761               	.LVL44:
 762               	/* epilogue start */
 763               	.LM113:
 764 0348 0895      		ret
 765               	.LFE19:
 767               	.global	set_pwm1b
 769               	set_pwm1b:
 770               	.LFB20:
 771               	.LM114:
 772               	.LVL45:
 773               	/* prologue: function */
 774               	/* frame size = 0 */
 775               	.LM115:
 776 034a 99BD      		out (72)+1-32,r25
 777 034c 88BD      		out 72-32,r24
 778               	.LVL46:
 779               	/* epilogue start */
 780               	.LM116:
 781 034e 0895      		ret
 782               	.LFE20:
 784               	.global	lcd_busy_loop
 786               	lcd_busy_loop:
 787               	.LFB22:
 788               	.LM117:
 789               	/* prologue: function */
 790               	/* frame size = 0 */
 791               	.LM118:
 792 0350 87B3      		in r24,55-32
 793 0352 807F      		andi r24,lo8(-16)
 794 0354 87BB      		out 55-32,r24
 795               	.LM119:
 796 0356 C69A      		sbi 56-32,6
 797               	.LM120:
 798 0358 C598      		cbi 56-32,5
 799               	.LBB222:
 800               	.LBB223:
 801               	.LBB224:
 802               	.LBB225:
 803               	.LM121:
 804 035a 82E0      		ldi r24,lo8(2)
 805               	.LVL47:
 806               	/* #APP */
 807               	 ;  83 "c:/winavr-20100110/lib/gcc/../../avr/include/util/delay_basic.h" 1
 808 035c 8A95      		1: dec r24
 809 035e 01F4      		brne 1b
 810               	 ;  0 "" 2
 811               	/* #NOAPP */
 812               	.LBE225:
 813               	.LBE224:
 814               	.LBE223:
 815               	.LBE222:
 816               	.LBB226:
 817               	.LBB227:
 818               	.LBB228:
 819               	.LBB229:
 820 0360 22E0      		ldi r18,lo8(2)
 821               	.LBE229:
 822               	.LBE228:
 823               	.LBE227:
 824               	.LBE226:
 825               	.LBB233:
 826               	.LBB234:
 827               	.LBB235:
 828               	.LBB236:
 829 0362 35E0      		ldi r19,lo8(5)
 830               	.L84:
 831               	.LBE236:
 832               	.LBE235:
 833               	.LBE234:
 834               	.LBE233:
 835               	.LM122:
 836 0364 C79A      		sbi 56-32,7
 837               	.LBB240:
 838               	.LBB232:
 839               	.LBB231:
 840               	.LBB230:
 841               	.LM123:
 842 0366 822F      		mov r24,r18
 843               	.LVL48:
 844               	/* #APP */
 845               	 ;  83 "c:/winavr-20100110/lib/gcc/../../avr/include/util/delay_basic.h" 1
 846 0368 8A95      		1: dec r24
 847 036a 01F4      		brne 1b
 848               	 ;  0 "" 2
 849               	/* #NOAPP */
 850               	.LBE230:
 851               	.LBE231:
 852               	.LBE232:
 853               	.LBE240:
 854               	.LM124:
 855 036c 86B3      		in r24,54-32
 856               	.LVL49:
 857               	.LM125:
 858 036e 8295      		swap r24
 859 0370 807F      		andi r24,lo8(-16)
 860               	.LBB241:
 861               	.LBB242:
 862               	.LBB243:
 863               	.LBB244:
 864               	.LM126:
 865 0372 922F      		mov r25,r18
 866               	.LVL50:
 867               	/* #APP */
 868               	 ;  83 "c:/winavr-20100110/lib/gcc/../../avr/include/util/delay_basic.h" 1
 869 0374 9A95      		1: dec r25
 870 0376 01F4      		brne 1b
 871               	 ;  0 "" 2
 872               	/* #NOAPP */
 873               	.LBE244:
 874               	.LBE243:
 875               	.LBE242:
 876               	.LBE241:
 877               	.LM127:
 878 0378 C798      		cbi 56-32,7
 879               	.LBB245:
 880               	.LBB239:
 881               	.LBB238:
 882               	.LBB237:
 883               	.LM128:
 884 037a 932F      		mov r25,r19
 885               	.LVL51:
 886               	/* #APP */
 887               	 ;  83 "c:/winavr-20100110/lib/gcc/../../avr/include/util/delay_basic.h" 1
 888 037c 9A95      		1: dec r25
 889 037e 01F4      		brne 1b
 890               	 ;  0 "" 2
 891               	/* #NOAPP */
 892               	.LBE237:
 893               	.LBE238:
 894               	.LBE239:
 895               	.LBE245:
 896               	.LM129:
 897 0380 C79A      		sbi 56-32,7
 898               	.LBB246:
 899               	.LBB247:
 900               	.LBB248:
 901               	.LBB249:
 902               	.LM130:
 903 0382 922F      		mov r25,r18
 904               	.LVL52:
 905               	/* #APP */
 906               	 ;  83 "c:/winavr-20100110/lib/gcc/../../avr/include/util/delay_basic.h" 1
 907 0384 9A95      		1: dec r25
 908 0386 01F4      		brne 1b
 909               	 ;  0 "" 2
 910               	/* #NOAPP */
 911               	.LBE249:
 912               	.LBE248:
 913               	.LBE247:
 914               	.LBE246:
 915               	.LM131:
 916 0388 96B3      		in r25,54-32
 917               	.LVL53:
 918               	.LBB250:
 919               	.LBB251:
 920               	.LBB252:
 921               	.LBB253:
 922               	.LM132:
 923 038a 922F      		mov r25,r18
 924               	.LVL54:
 925               	/* #APP */
 926               	 ;  83 "c:/winavr-20100110/lib/gcc/../../avr/include/util/delay_basic.h" 1
 927 038c 9A95      		1: dec r25
 928 038e 01F4      		brne 1b
 929               	 ;  0 "" 2
 930               	/* #NOAPP */
 931               	.LBE253:
 932               	.LBE252:
 933               	.LBE251:
 934               	.LBE250:
 935               	.LM133:
 936 0390 C798      		cbi 56-32,7
 937               	.LBB254:
 938               	.LBB255:
 939               	.LBB256:
 940               	.LBB257:
 941               	.LM134:
 942 0392 932F      		mov r25,r19
 943               	.LVL55:
 944               	/* #APP */
 945               	 ;  83 "c:/winavr-20100110/lib/gcc/../../avr/include/util/delay_basic.h" 1
 946 0394 9A95      		1: dec r25
 947 0396 01F4      		brne 1b
 948               	 ;  0 "" 2
 949               	/* #NOAPP */
 950               	.LBE257:
 951               	.LBE256:
 952               	.LBE255:
 953               	.LBE254:
 954               	.LM135:
 955 0398 87FD      		sbrc r24,7
 956 039a 00C0      		rjmp .L84
 957               	.LM136:
 958 039c C698      		cbi 56-32,6
 959               	.LM137:
 960 039e 87B3      		in r24,55-32
 961               	.LVL56:
 962 03a0 8F60      		ori r24,lo8(15)
 963 03a2 87BB      		out 55-32,r24
 964               	/* epilogue start */
 965               	.LM138:
 966 03a4 0895      		ret
 967               	.LFE22:
 969               	.global	lcd_byte
 971               	lcd_byte:
 972               	.LFB21:
 973               	.LM139:
 974               	.LVL57:
 975               	/* prologue: function */
 976               	/* frame size = 0 */
 977 03a6 282F      		mov r18,r24
 978               	.LM140:
 979 03a8 6623      		tst r22
 980 03aa 01F4      		brne .L88
 981               	.LVL58:
 982               	.LM141:
 983 03ac C598      		cbi 56-32,5
 984 03ae 00C0      		rjmp .L89
 985               	.L88:
 986               	.LM142:
 987 03b0 C59A      		sbi 56-32,5
 988               	.L89:
 989               	.LBB258:
 990               	.LBB259:
 991               	.LBB260:
 992               	.LBB261:
 993               	.LM143:
 994 03b2 82E0      		ldi r24,lo8(2)
 995               	.LVL59:
 996               	/* #APP */
 997               	 ;  83 "c:/winavr-20100110/lib/gcc/../../avr/include/util/delay_basic.h" 1
 998 03b4 8A95      		1: dec r24
 999 03b6 01F4      		brne 1b
 1000               	 ;  0 "" 2
 1001               	/* #NOAPP */
 1002               	.LBE261:
 1003               	.LBE260:
 1004               	.LBE259:
 1005               	.LBE258:
 1006               	.LM144:
 1007 03b8 C79A      		sbi 56-32,7
 1008               	.LM145:
 1009 03ba 88B3      		in r24,56-32
 1010               	.LVL60:
 1011 03bc 922F      		mov r25,r18
 1012 03be 9295      		swap r25
 1013 03c0 9F70      		andi r25,lo8(15)
 1014 03c2 807F      		andi r24,lo8(-16)
 1015 03c4 982B      		or r25,r24
 1016               	.LM146:
 1017 03c6 98BB      		out 56-32,r25
 1018               	.LBB262:
 1019               	.LBB263:
 1020               	.LBB264:
 1021               	.LBB265:
 1022               	.LM147:
 1023 03c8 95E0      		ldi r25,lo8(5)
 1024 03ca 892F      		mov r24,r25
 1025               	.LVL61:
 1026               	/* #APP */
 1027               	 ;  83 "c:/winavr-20100110/lib/gcc/../../avr/include/util/delay_basic.h" 1
 1028 03cc 8A95      		1: dec r24
 1029 03ce 01F4      		brne 1b
 1030               	 ;  0 "" 2
 1031               	/* #NOAPP */
 1032               	.LBE265:
 1033               	.LBE264:
 1034               	.LBE263:
 1035               	.LBE262:
 1036               	.LM148:
 1037 03d0 C798      		cbi 56-32,7
 1038               	.LBB266:
 1039               	.LBB267:
 1040               	.LBB268:
 1041               	.LBB269:
 1042               	.LM149:
 1043 03d2 892F      		mov r24,r25
 1044               	.LVL62:
 1045               	/* #APP */
 1046               	 ;  83 "c:/winavr-20100110/lib/gcc/../../avr/include/util/delay_basic.h" 1
 1047 03d4 8A95      		1: dec r24
 1048 03d6 01F4      		brne 1b
 1049               	 ;  0 "" 2
 1050               	/* #NOAPP */
 1051               	.LBE269:
 1052               	.LBE268:
 1053               	.LBE267:
 1054               	.LBE266:
 1055               	.LM150:
 1056 03d8 C79A      		sbi 56-32,7
 1057               	.LM151:
 1058 03da 88B3      		in r24,56-32
 1059               	.LVL63:
 1060 03dc 2F70      		andi r18,lo8(15)
 1061 03de 807F      		andi r24,lo8(-16)
 1062 03e0 822B      		or r24,r18
 1063               	.LM152:
 1064 03e2 88BB      		out 56-32,r24
 1065               	.LBB270:
 1066               	.LBB271:
 1067               	.LBB272:
 1068               	.LBB273:
 1069               	.LM153:
 1070 03e4 892F      		mov r24,r25
 1071               	.LVL64:
 1072               	/* #APP */
 1073               	 ;  83 "c:/winavr-20100110/lib/gcc/../../avr/include/util/delay_basic.h" 1
 1074 03e6 8A95      		1: dec r24
 1075 03e8 01F4      		brne 1b
 1076               	 ;  0 "" 2
 1077               	/* #NOAPP */
 1078               	.LBE273:
 1079               	.LBE272:
 1080               	.LBE271:
 1081               	.LBE270:
 1082               	.LM154:
 1083 03ea C798      		cbi 56-32,7
 1084               	.LBB274:
 1085               	.LBB275:
 1086               	.LBB276:
 1087               	.LBB277:
 1088               	.LM155:
 1089               	/* #APP */
 1090               	 ;  83 "c:/winavr-20100110/lib/gcc/../../avr/include/util/delay_basic.h" 1
 1091 03ec 9A95      		1: dec r25
 1092 03ee 01F4      		brne 1b
 1093               	 ;  0 "" 2
 1094               	.LVL65:
 1095               	/* #NOAPP */
 1096               	.LBE277:
 1097               	.LBE276:
 1098               	.LBE275:
 1099               	.LBE274:
 1100               	.LM156:
 1101 03f0 0E94 0000 		call lcd_busy_loop
 1102               	.LVL66:
 1103               	/* epilogue start */
 1104               	.LM157:
 1105 03f4 0895      		ret
 1106               	.LFE21:
 1108               	.global	lcd_init
 1110               	lcd_init:
 1111               	.LFB23:
 1112               	.LM158:
 1113               	.LVL67:
 1114 03f6 1F93      		push r17
 1115               	/* prologue: function */
 1116               	/* frame size = 0 */
 1117 03f8 182F      		mov r17,r24
 1118               	.LM159:
 1119 03fa 8CE2      		ldi r24,lo8(300)
 1120 03fc 91E0      		ldi r25,hi8(300)
 1121               	.LVL68:
 1122               	.LBB278:
 1123               	.LBB279:
 1124               	.LBB280:
 1125               	.LBB281:
 1126               	.LM160:
 1127 03fe 20E9      		ldi r18,lo8(400)
 1128 0400 31E0      		ldi r19,hi8(400)
 1129               	.L92:
 1130 0402 F901      		movw r30,r18
 1131               	.LVL69:
 1132               	/* #APP */
 1133               	 ;  105 "c:/winavr-20100110/lib/gcc/../../avr/include/util/delay_basic.h" 1
 1134 0404 3197      		1: sbiw r30,1
 1135 0406 01F4      		brne 1b
 1136               	 ;  0 "" 2
 1137               	/* #NOAPP */
 1138               	.LBE281:
 1139               	.LBE280:
 1140               	.LM161:
 1141 0408 0197      		sbiw r24,1
 1142               	.LM162:
 1143 040a 01F4      		brne .L92
 1144               	.LBE279:
 1145               	.LBE278:
 1146               	.LM163:
 1147 040c 87B3      		in r24,55-32
 1148               	.LVL70:
 1149 040e 8F60      		ori r24,lo8(15)
 1150 0410 87BB      		out 55-32,r24
 1151               	.LM164:
 1152 0412 BF9A      		sbi 55-32,7
 1153               	.LM165:
 1154 0414 BD9A      		sbi 55-32,5
 1155               	.LM166:
 1156 0416 BE9A      		sbi 55-32,6
 1157               	.LM167:
 1158 0418 88B3      		in r24,56-32
 1159 041a 807F      		andi r24,lo8(-16)
 1160 041c 88BB      		out 56-32,r24
 1161               	.LM168:
 1162 041e C798      		cbi 56-32,7
 1163               	.LM169:
 1164 0420 C698      		cbi 56-32,6
 1165               	.LM170:
 1166 0422 C598      		cbi 56-32,5
 1167               	.LBB282:
 1168               	.LBB283:
 1169               	.LBB284:
 1170               	.LBB285:
 1171               	.LM171:
 1172 0424 81E0      		ldi r24,lo8(1)
 1173               	.LVL71:
 1174               	/* #APP */
 1175               	 ;  83 "c:/winavr-20100110/lib/gcc/../../avr/include/util/delay_basic.h" 1
 1176 0426 8A95      		1: dec r24
 1177 0428 01F4      		brne 1b
 1178               	 ;  0 "" 2
 1179               	/* #NOAPP */
 1180               	.LBE285:
 1181               	.LBE284:
 1182               	.LBE283:
 1183               	.LBE282:
 1184               	.LM172:
 1185 042a C79A      		sbi 56-32,7
 1186               	.LM173:
 1187 042c C19A      		sbi 56-32,1
 1188               	.LBB286:
 1189               	.LBB287:
 1190               	.LBB288:
 1191               	.LBB289:
 1192               	.LM174:
 1193 042e 85E0      		ldi r24,lo8(5)
 1194               	.LVL72:
 1195 0430 982F      		mov r25,r24
 1196               	.LVL73:
 1197               	/* #APP */
 1198               	 ;  83 "c:/winavr-20100110/lib/gcc/../../avr/include/util/delay_basic.h" 1
 1199 0432 9A95      		1: dec r25
 1200 0434 01F4      		brne 1b
 1201               	 ;  0 "" 2
 1202               	/* #NOAPP */
 1203               	.LBE289:
 1204               	.LBE288:
 1205               	.LBE287:
 1206               	.LBE286:
 1207               	.LM175:
 1208 0436 C798      		cbi 56-32,7
 1209               	.LBB290:
 1210               	.LBB291:
 1211               	.LBB292:
 1212               	.LBB293:
 1213               	.LM176:
 1214               	/* #APP */
 1215               	 ;  83 "c:/winavr-20100110/lib/gcc/../../avr/include/util/delay_basic.h" 1
 1216 0438 8A95      		1: dec r24
 1217 043a 01F4      		brne 1b
 1218               	 ;  0 "" 2
 1219               	.LVL74:
 1220               	/* #NOAPP */
 1221               	.LBE293:
 1222               	.LBE292:
 1223               	.LBE291:
 1224               	.LBE290:
 1225               	.LM177:
 1226 043c 0E94 0000 		call lcd_busy_loop
 1227               	.LVL75:
 1228               	.LM178:
 1229 0440 812F      		mov r24,r17
 1230 0442 8C60      		ori r24,lo8(12)
 1231 0444 60E0      		ldi r22,lo8(0)
 1232 0446 0E94 0000 		call lcd_byte
 1233               	.LM179:
 1234 044a 88E2      		ldi r24,lo8(40)
 1235 044c 60E0      		ldi r22,lo8(0)
 1236 044e 0E94 0000 		call lcd_byte
 1237               	/* epilogue start */
 1238               	.LM180:
 1239 0452 1F91      		pop r17
 1240               	.LVL76:
 1241 0454 0895      		ret
 1242               	.LFE23:
 1244               	.global	lcd_write_string
 1246               	lcd_write_string:
 1247               	.LFB24:
 1248               	.LM181:
 1249               	.LVL77:
 1250 0456 CF93      		push r28
 1251 0458 DF93      		push r29
 1252               	/* prologue: function */
 1253               	/* frame size = 0 */
 1254 045a EC01      		movw r28,r24
 1255 045c 00C0      		rjmp .L96
 1256               	.LVL78:
 1257               	.L97:
 1258               	.LM182:
 1259 045e 61E0      		ldi r22,lo8(1)
 1260 0460 0E94 0000 		call lcd_byte
 1261               	.LM183:
 1262 0464 2196      		adiw r28,1
 1263               	.LVL79:
 1264               	.L96:
 1265               	.LM184:
 1266 0466 8881      		ld r24,Y
 1267 0468 8823      		tst r24
 1268 046a 01F4      		brne .L97
 1269               	/* epilogue start */
 1270               	.LM185:
 1271 046c DF91      		pop r29
 1272 046e CF91      		pop r28
 1273               	.LVL80:
 1274 0470 0895      		ret
 1275               	.LFE24:
 1277               	.global	lcd_write_int
 1279               	lcd_write_int:
 1280               	.LFB25:
 1281               	.LM186:
 1282               	.LVL81:
 1283 0472 EF92      		push r14
 1284 0474 FF92      		push r15
 1285 0476 0F93      		push r16
 1286 0478 1F93      		push r17
 1287 047a DF93      		push r29
 1288 047c CF93      		push r28
 1289 047e 00D0      		rcall .
 1290 0480 00D0      		rcall .
 1291 0482 0F92      		push __tmp_reg__
 1292 0484 CDB7      		in r28,__SP_L__
 1293 0486 DEB7      		in r29,__SP_H__
 1294               	/* prologue: function */
 1295               	/* frame size = 5 */
 1296 0488 9C01      		movw r18,r24
 1297 048a 8B01      		movw r16,r22
 1298               	.LM187:
 1299 048c FE01      		movw r30,r28
 1300 048e 3196      		adiw r30,1
 1301 0490 85E0      		ldi r24,lo8(5)
 1302               	.LVL82:
 1303 0492 DF01      		movw r26,r30
 1304 0494 1D92      		st X+,__zero_reg__
 1305 0496 8A95      	        dec r24
 1306 0498 01F4      		brne .-6
 1307 049a FE01      		movw r30,r28
 1308 049c 3596      		adiw r30,5
 1309 049e 00C0      		rjmp .L100
 1310               	.LVL83:
 1311               	.L101:
 1312               	.LM188:
 1313 04a0 C901      		movw r24,r18
 1314 04a2 6AE0      		ldi r22,lo8(10)
 1315 04a4 70E0      		ldi r23,hi8(10)
 1316 04a6 0E94 0000 		call __divmodhi4
 1317 04aa 8083      		st Z,r24
 1318               	.LM189:
 1319 04ac C901      		movw r24,r18
 1320 04ae 6AE0      		ldi r22,lo8(10)
 1321 04b0 70E0      		ldi r23,hi8(10)
 1322 04b2 0E94 0000 		call __divmodhi4
 1323 04b6 9B01      		movw r18,r22
 1324 04b8 3197      		sbiw r30,1
 1325               	.LVL84:
 1326               	.L100:
 1327               	.LM190:
 1328 04ba 2115      		cp r18,__zero_reg__
 1329 04bc 3105      		cpc r19,__zero_reg__
 1330 04be 01F4      		brne .L101
 1331               	.LM191:
 1332 04c0 BFEF      		ldi r27,hi8(-1)
 1333 04c2 0F3F      		cpi r16,lo8(-1)
 1334 04c4 1B07      		cpc r17,r27
 1335 04c6 01F4      		brne .L102
 1336 04c8 20E0      		ldi r18,lo8(0)
 1337 04ca 30E0      		ldi r19,hi8(0)
 1338               	.LVL85:
 1339               	.LM192:
 1340 04cc AE01      		movw r20,r28
 1341 04ce 4F5F      		subi r20,lo8(-(1))
 1342 04d0 5F4F      		sbci r21,hi8(-(1))
 1343 04d2 00C0      		rjmp .L103
 1344               	.L104:
 1345 04d4 2F5F      		subi r18,lo8(-(1))
 1346 04d6 3F4F      		sbci r19,hi8(-(1))
 1347               	.L103:
 1348 04d8 FA01      		movw r30,r20
 1349 04da E20F      		add r30,r18
 1350 04dc F31F      		adc r31,r19
 1351 04de 8081      		ld r24,Z
 1352 04e0 8823      		tst r24
 1353 04e2 01F0      		breq .L104
 1354 04e4 00C0      		rjmp .L105
 1355               	.LVL86:
 1356               	.L102:
 1357               	.LM193:
 1358 04e6 25E0      		ldi r18,lo8(5)
 1359 04e8 30E0      		ldi r19,hi8(5)
 1360               	.LVL87:
 1361 04ea 201B      		sub r18,r16
 1362 04ec 310B      		sbc r19,r17
 1363               	.L105:
 1364 04ee 7E01      		movw r14,r28
 1365 04f0 0894      		sec
 1366 04f2 E11C      		adc r14,__zero_reg__
 1367 04f4 F11C      		adc r15,__zero_reg__
 1368 04f6 E20E      		add r14,r18
 1369 04f8 F31E      		adc r15,r19
 1370 04fa 8901      		movw r16,r18
 1371               	.LVL88:
 1372 04fc 00C0      		rjmp .L106
 1373               	.L107:
 1374               	.LM194:
 1375 04fe F701      		movw r30,r14
 1376 0500 8191      		ld r24,Z+
 1377 0502 7F01      		movw r14,r30
 1378 0504 805D      		subi r24,lo8(-(48))
 1379 0506 61E0      		ldi r22,lo8(1)
 1380               	.LVL89:
 1381 0508 0E94 0000 		call lcd_byte
 1382               	.LVL90:
 1383               	.LM195:
 1384 050c 0F5F      		subi r16,lo8(-(1))
 1385 050e 1F4F      		sbci r17,hi8(-(1))
 1386               	.LVL91:
 1387               	.L106:
 1388 0510 0530      		cpi r16,5
 1389 0512 1105      		cpc r17,__zero_reg__
 1390 0514 04F0      		brlt .L107
 1391               	/* epilogue start */
 1392               	.LM196:
 1393 0516 0F90      		pop __tmp_reg__
 1394 0518 0F90      		pop __tmp_reg__
 1395 051a 0F90      		pop __tmp_reg__
 1396 051c 0F90      		pop __tmp_reg__
 1397 051e 0F90      		pop __tmp_reg__
 1398 0520 CF91      		pop r28
 1399 0522 DF91      		pop r29
 1400 0524 1F91      		pop r17
 1401 0526 0F91      		pop r16
 1402               	.LVL92:
 1403 0528 FF90      		pop r15
 1404 052a EF90      		pop r14
 1405 052c 0895      		ret
 1406               	.LFE25:
 1408               	.global	lcd_goto_xy
 1410               	lcd_goto_xy:
 1411               	.LFB26:
 1412               	.LM197:
 1413               	.LVL93:
 1414               	/* prologue: function */
 1415               	/* frame size = 0 */
 1416               	.LM198:
 1417 052e 8832      		cpi r24,lo8(40)
 1418 0530 00F4      		brsh .L112
 1419               	.LM199:
 1420 0532 6111      		cpse r22,__zero_reg__
 1421 0534 8064      		ori r24,lo8(64)
 1422               	.LVL94:
 1423               	.L111:
 1424               	.LM200:
 1425 0536 8068      		ori r24,lo8(-128)
 1426               	.LVL95:
 1427 0538 60E0      		ldi r22,lo8(0)
 1428               	.LVL96:
 1429 053a 0E94 0000 		call lcd_byte
 1430               	.LVL97:
 1431               	.L112:
 1432 053e 0895      		ret
 1433               	.LFE26:
 1435               	.global	lcd_write_string_xy
 1437               	lcd_write_string_xy:
 1438               	.LFB27:
 1439               	.LM201:
 1440               	.LVL98:
 1441 0540 0F93      		push r16
 1442 0542 1F93      		push r17
 1443               	/* prologue: function */
 1444               	/* frame size = 0 */
 1445 0544 8A01      		movw r16,r20
 1446               	.LM202:
 1447 0546 0E94 0000 		call lcd_goto_xy
 1448               	.LVL99:
 1449               	.LM203:
 1450 054a C801      		movw r24,r16
 1451 054c 0E94 0000 		call lcd_write_string
 1452               	/* epilogue start */
 1453               	.LM204:
 1454 0550 1F91      		pop r17
 1455 0552 0F91      		pop r16
 1456               	.LVL100:
 1457 0554 0895      		ret
 1458               	.LFE27:
 1460               	.global	lcd_write_int_xy
 1462               	lcd_write_int_xy:
 1463               	.LFB28:
 1464               	.LM205:
 1465               	.LVL101:
 1466 0556 EF92      		push r14
 1467 0558 FF92      		push r15
 1468 055a 0F93      		push r16
 1469 055c 1F93      		push r17
 1470               	/* prologue: function */
 1471               	/* frame size = 0 */
 1472 055e 8A01      		movw r16,r20
 1473 0560 7901      		movw r14,r18
 1474               	.LM206:
 1475 0562 0E94 0000 		call lcd_goto_xy
 1476               	.LVL102:
 1477               	.LM207:
 1478 0566 C801      		movw r24,r16
 1479 0568 B701      		movw r22,r14
 1480 056a 0E94 0000 		call lcd_write_int
 1481               	/* epilogue start */
 1482               	.LM208:
 1483 056e 1F91      		pop r17
 1484 0570 0F91      		pop r16
 1485               	.LVL103:
 1486 0572 FF90      		pop r15
 1487 0574 EF90      		pop r14
 1488               	.LVL104:
 1489 0576 0895      		ret
 1490               	.LFE28:
 1492               	.global	usart_init
 1494               	usart_init:
 1495               	.LFB29:
 1496               	.LM209:
 1497               	/* prologue: function */
 1498               	/* frame size = 0 */
 1499               	.LM210:
 1500 0578 1AB8      		out 42-32,__zero_reg__
 1501               	.LM211:
 1502 057a 1BB8      		out 43-32,__zero_reg__
 1503               	.LM212:
 1504 057c 87E0      		ldi r24,lo8(7)
 1505 057e 80BD      		out 64-32,r24
 1506               	.LM213:
 1507 0580 87E6      		ldi r24,lo8(103)
 1508 0582 89B9      		out 41-32,r24
 1509               	.LM214:
 1510 0584 10BC      		out 64-32,__zero_reg__
 1511               	.LM215:
 1512 0586 88E9      		ldi r24,lo8(-104)
 1513 0588 8AB9      		out 42-32,r24
 1514               	/* epilogue start */
 1515               	.LM216:
 1516 058a 0895      		ret
 1517               	.LFE29:
 1519               	.global	usart_transmit_char
 1521               	usart_transmit_char:
 1522               	.LFB30:
 1523               	.LM217:
 1524               	/* prologue: function */
 1525               	/* frame size = 0 */
 1526               	.LVL105:
 1527               	.L120:
 1528               	.LM218:
 1529 058c 5D9B      		sbis 43-32,5
 1530 058e 00C0      		rjmp .L120
 1531               	.LM219:
 1532 0590 8CB9      		out 44-32,r24
 1533               	/* epilogue start */
 1534               	.LM220:
 1535 0592 0895      		ret
 1536               	.LFE30:
 1538               	.global	usart_transmit_string
 1540               	usart_transmit_string:
 1541               	.LFB31:
 1542               	.LM221:
 1543               	.LVL106:
 1544               	/* prologue: function */
 1545               	/* frame size = 0 */
 1546 0594 FC01      		movw r30,r24
 1547 0596 00C0      		rjmp .L124
 1548               	.LVL107:
 1549               	.L127:
 1550               	.LBB294:
 1551               	.LBB295:
 1552               	.LM222:
 1553 0598 5D9B      		sbis 43-32,5
 1554 059a 00C0      		rjmp .L127
 1555               	.LM223:
 1556 059c 8CB9      		out 44-32,r24
 1557               	.LBE295:
 1558               	.LBE294:
 1559               	.LM224:
 1560 059e 3196      		adiw r30,1
 1561               	.LVL108:
 1562               	.L124:
 1563               	.LM225:
 1564 05a0 8081      		ld r24,Z
 1565 05a2 8823      		tst r24
 1566 05a4 01F4      		brne .L127
 1567               	/* epilogue start */
 1568               	.LM226:
 1569 05a6 0895      		ret
 1570               	.LFE31:
 1572               	.global	usart_transmit_newline
 1574               	usart_transmit_newline:
 1575               	.LFB32:
 1576               	.LM227:
 1577               	/* prologue: function */
 1578               	/* frame size = 0 */
 1579               	.L130:
 1580               	.LBB296:
 1581               	.LBB297:
 1582               	.LM228:
 1583 05a8 5D9B      		sbis 43-32,5
 1584 05aa 00C0      		rjmp .L130
 1585               	.LM229:
 1586 05ac 8AE0      		ldi r24,lo8(10)
 1587 05ae 8CB9      		out 44-32,r24
 1588               	.L131:
 1589               	.LBE297:
 1590               	.LBE296:
 1591               	.LBB298:
 1592               	.LBB299:
 1593               	.LM230:
 1594 05b0 5D9B      		sbis 43-32,5
 1595 05b2 00C0      		rjmp .L131
 1596               	.LM231:
 1597 05b4 8DE0      		ldi r24,lo8(13)
 1598 05b6 8CB9      		out 44-32,r24
 1599               	/* epilogue start */
 1600               	.LBE299:
 1601               	.LBE298:
 1602               	.LM232:
 1603 05b8 0895      		ret
 1604               	.LFE32:
 1606               	.global	usart_receive_char
 1608               	usart_receive_char:
 1609               	.LFB33:
 1610               	.LM233:
 1611               	/* prologue: function */
 1612               	/* frame size = 0 */
 1613               	.L136:
 1614               	.LM234:
 1615 05ba 5F9B      		sbis 43-32,7
 1616 05bc 00C0      		rjmp .L136
 1617               	.LM235:
 1618 05be 8CB1      		in r24,44-32
 1619               	/* epilogue start */
 1620               	.LM236:
 1621 05c0 0895      		ret
 1622               	.LFE33:
 1624               	.global	bot_motion_init
 1626               	bot_motion_init:
 1627               	.LFB34:
 1628               	.LM237:
 1629               	/* prologue: function */
 1630               	/* frame size = 0 */
 1631               	.LM238:
 1632 05c2 8FEF      		ldi r24,lo8(-1)
 1633 05c4 84BB      		out 52-32,r24
 1634               	/* epilogue start */
 1635               	.LM239:
 1636 05c6 0895      		ret
 1637               	.LFE34:
 1639               	.global	bot_left_forward
 1641               	bot_left_forward:
 1642               	.LFB35:
 1643               	.LM240:
 1644               	/* prologue: function */
 1645               	/* frame size = 0 */
 1646               	.LM241:
 1647 05c8 AC9A      		sbi 53-32,4
 1648               	.LM242:
 1649 05ca AD98      		cbi 53-32,5
 1650               	.LM243:
 1651 05cc AE98      		cbi 53-32,6
 1652               	.LM244:
 1653 05ce AF98      		cbi 53-32,7
 1654               	/* epilogue start */
 1655               	.LM245:
 1656 05d0 0895      		ret
 1657               	.LFE35:
 1659               	.global	bot_left_backward
 1661               	bot_left_backward:
 1662               	.LFB36:
 1663               	.LM246:
 1664               	/* prologue: function */
 1665               	/* frame size = 0 */
 1666               	.LM247:
 1667 05d2 AC98      		cbi 53-32,4
 1668               	.LM248:
 1669 05d4 AD9A      		sbi 53-32,5
 1670               	.LM249:
 1671 05d6 AE98      		cbi 53-32,6
 1672               	.LM250:
 1673 05d8 AF98      		cbi 53-32,7
 1674               	/* epilogue start */
 1675               	.LM251:
 1676 05da 0895      		ret
 1677               	.LFE36:
 1679               	.global	bot_right_forward
 1681               	bot_right_forward:
 1682               	.LFB37:
 1683               	.LM252:
 1684               	/* prologue: function */
 1685               	/* frame size = 0 */
 1686               	.LM253:
 1687 05dc AC98      		cbi 53-32,4
 1688               	.LM254:
 1689 05de AD98      		cbi 53-32,5
 1690               	.LM255:
 1691 05e0 AE9A      		sbi 53-32,6
 1692               	.LM256:
 1693 05e2 AF98      		cbi 53-32,7
 1694               	/* epilogue start */
 1695               	.LM257:
 1696 05e4 0895      		ret
 1697               	.LFE37:
 1699               	.global	bot_left
 1701               	bot_left:
 1702               	.LFB38:
 1703               	.LM258:
 1704               	/* prologue: function */
 1705               	/* frame size = 0 */
 1706               	.LBB300:
 1707               	.LBB301:
 1708               	.LM259:
 1709 05e6 AC98      		cbi 53-32,4
 1710               	.LM260:
 1711 05e8 AD98      		cbi 53-32,5
 1712               	.LM261:
 1713 05ea AE9A      		sbi 53-32,6
 1714               	.LM262:
 1715 05ec AF98      		cbi 53-32,7
 1716               	/* epilogue start */
 1717               	.LBE301:
 1718               	.LBE300:
 1719               	.LM263:
 1720 05ee 0895      		ret
 1721               	.LFE38:
 1723               	.global	bot_right
 1725               	bot_right:
 1726               	.LFB39:
 1727               	.LM264:
 1728               	/* prologue: function */
 1729               	/* frame size = 0 */
 1730               	.LBB302:
 1731               	.LBB303:
 1732               	.LM265:
 1733 05f0 AC9A      		sbi 53-32,4
 1734               	.LM266:
 1735 05f2 AD98      		cbi 53-32,5
 1736               	.LM267:
 1737 05f4 AE98      		cbi 53-32,6
 1738               	.LM268:
 1739 05f6 AF98      		cbi 53-32,7
 1740               	/* epilogue start */
 1741               	.LBE303:
 1742               	.LBE302:
 1743               	.LM269:
 1744 05f8 0895      		ret
 1745               	.LFE39:
 1747               	.global	bot_right_backward
 1749               	bot_right_backward:
 1750               	.LFB40:
 1751               	.LM270:
 1752               	/* prologue: function */
 1753               	/* frame size = 0 */
 1754               	.LM271:
 1755 05fa AC98      		cbi 53-32,4
 1756               	.LM272:
 1757 05fc AD98      		cbi 53-32,5
 1758               	.LM273:
 1759 05fe AE98      		cbi 53-32,6
 1760               	.LM274:
 1761 0600 AF9A      		sbi 53-32,7
 1762               	/* epilogue start */
 1763               	.LM275:
 1764 0602 0895      		ret
 1765               	.LFE40:
 1767               	.global	bot_forward
 1769               	bot_forward:
 1770               	.LFB41:
 1771               	.LM276:
 1772               	/* prologue: function */
 1773               	/* frame size = 0 */
 1774               	.LM277:
 1775 0604 AC9A      		sbi 53-32,4
 1776               	.LM278:
 1777 0606 AD98      		cbi 53-32,5
 1778               	.LM279:
 1779 0608 AE9A      		sbi 53-32,6
 1780               	.LM280:
 1781 060a AF98      		cbi 53-32,7
 1782               	/* epilogue start */
 1783               	.LM281:
 1784 060c 0895      		ret
 1785               	.LFE41:
 1787               	.global	bot_backward
 1789               	bot_backward:
 1790               	.LFB42:
 1791               	.LM282:
 1792               	/* prologue: function */
 1793               	/* frame size = 0 */
 1794               	.LM283:
 1795 060e AC98      		cbi 53-32,4
 1796               	.LM284:
 1797 0610 AD9A      		sbi 53-32,5
 1798               	.LM285:
 1799 0612 AE98      		cbi 53-32,6
 1800               	.LM286:
 1801 0614 AF9A      		sbi 53-32,7
 1802               	/* epilogue start */
 1803               	.LM287:
 1804 0616 0895      		ret
 1805               	.LFE42:
 1807               	.global	bot_spot_left
 1809               	bot_spot_left:
 1810               	.LFB43:
 1811               	.LM288:
 1812               	/* prologue: function */
 1813               	/* frame size = 0 */
 1814               	.LM289:
 1815 0618 AC98      		cbi 53-32,4
 1816               	.LM290:
 1817 061a AD9A      		sbi 53-32,5
 1818               	.LM291:
 1819 061c AE9A      		sbi 53-32,6
 1820               	.LM292:
 1821 061e AF98      		cbi 53-32,7
 1822               	/* epilogue start */
 1823               	.LM293:
 1824 0620 0895      		ret
 1825               	.LFE43:
 1827               	.global	bot_spot_right
 1829               	bot_spot_right:
 1830               	.LFB44:
 1831               	.LM294:
 1832               	/* prologue: function */
 1833               	/* frame size = 0 */
 1834               	.LM295:
 1835 0622 AC9A      		sbi 53-32,4
 1836               	.LM296:
 1837 0624 AD98      		cbi 53-32,5
 1838               	.LM297:
 1839 0626 AE98      		cbi 53-32,6
 1840               	.LM298:
 1841 0628 AF9A      		sbi 53-32,7
 1842               	/* epilogue start */
 1843               	.LM299:
 1844 062a 0895      		ret
 1845               	.LFE44:
 1847               	.global	bot_stop
 1849               	bot_stop:
 1850               	.LFB45:
 1851               	.LM300:
 1852               	/* prologue: function */
 1853               	/* frame size = 0 */
 1854               	.LM301:
 1855 062c AC98      		cbi 53-32,4
 1856               	.LM302:
 1857 062e AD98      		cbi 53-32,5
 1858               	.LM303:
 1859 0630 AE98      		cbi 53-32,6
 1860               	.LM304:
 1861 0632 AF98      		cbi 53-32,7
 1862               	/* epilogue start */
 1863               	.LM305:
 1864 0634 0895      		ret
 1865               	.LFE45:
 1867               	.global	bot_brake
 1869               	bot_brake:
 1870               	.LFB46:
 1871               	.LM306:
 1872               	/* prologue: function */
 1873               	/* frame size = 0 */
 1874               	.LM307:
 1875 0636 AC9A      		sbi 53-32,4
 1876               	.LM308:
 1877 0638 AD9A      		sbi 53-32,5
 1878               	.LM309:
 1879 063a AE9A      		sbi 53-32,6
 1880               	.LM310:
 1881 063c AF9A      		sbi 53-32,7
 1882               	/* epilogue start */
 1883               	.LM311:
 1884 063e 0895      		ret
 1885               	.LFE46:
 1887               	.global	switch_init
 1889               	switch_init:
 1890               	.LFB47:
 1891               	.LM312:
 1892               	/* prologue: function */
 1893               	/* frame size = 0 */
 1894               	.LM313:
 1895 0640 82B3      		in r24,50-32
 1896 0642 8F60      		ori r24,lo8(15)
 1897 0644 82BB      		out 50-32,r24
 1898               	.LM314:
 1899 0646 81B3      		in r24,49-32
 1900 0648 807F      		andi r24,lo8(-16)
 1901 064a 81BB      		out 49-32,r24
 1902               	/* epilogue start */
 1903               	.LM315:
 1904 064c 0895      		ret
 1905               	.LFE47:
 1907               	.global	pressed_switch0
 1909               	pressed_switch0:
 1910               	.LFB48:
 1911               	.LM316:
 1912               	/* prologue: function */
 1913               	/* frame size = 0 */
 1914               	.LM317:
 1915 064e 20B3      		in r18,48-32
 1916 0650 30E0      		ldi r19,lo8(0)
 1917 0652 2095      		com r18
 1918 0654 3095      		com r19
 1919 0656 2170      		andi r18,lo8(1)
 1920 0658 3070      		andi r19,hi8(1)
 1921               	.LM318:
 1922 065a C901      		movw r24,r18
 1923               	/* epilogue start */
 1924 065c 0895      		ret
 1925               	.LFE48:
 1927               	.global	pressed_switch1
 1929               	pressed_switch1:
 1930               	.LFB49:
 1931               	.LM319:
 1932               	/* prologue: function */
 1933               	/* frame size = 0 */
 1934               	.LM320:
 1935 065e 20B3      		in r18,48-32
 1936 0660 30E0      		ldi r19,lo8(0)
 1937 0662 3695      		lsr r19
 1938 0664 2795      		ror r18
 1939 0666 2095      		com r18
 1940 0668 3095      		com r19
 1941 066a 2170      		andi r18,lo8(1)
 1942 066c 3070      		andi r19,hi8(1)
 1943               	.LM321:
 1944 066e C901      		movw r24,r18
 1945               	/* epilogue start */
 1946 0670 0895      		ret
 1947               	.LFE49:
 1949               	.global	pressed_switch2
 1951               	pressed_switch2:
 1952               	.LFB50:
 1953               	.LM322:
 1954               	/* prologue: function */
 1955               	/* frame size = 0 */
 1956               	.LM323:
 1957 0672 20B3      		in r18,48-32
 1958 0674 30E0      		ldi r19,lo8(0)
 1959 0676 3695      		lsr r19
 1960 0678 2795      		ror r18
 1961 067a 3695      		lsr r19
 1962 067c 2795      		ror r18
 1963 067e 2095      		com r18
 1964 0680 3095      		com r19
 1965 0682 2170      		andi r18,lo8(1)
 1966 0684 3070      		andi r19,hi8(1)
 1967               	.LM324:
 1968 0686 C901      		movw r24,r18
 1969               	/* epilogue start */
 1970 0688 0895      		ret
 1971               	.LFE50:
 1973               	.global	pressed_switch3
 1975               	pressed_switch3:
 1976               	.LFB51:
 1977               	.LM325:
 1978               	/* prologue: function */
 1979               	/* frame size = 0 */
 1980               	.LM326:
 1981 068a 20B3      		in r18,48-32
 1982 068c 30E0      		ldi r19,lo8(0)
 1983 068e 53E0      		ldi r21,3
 1984 0690 3695      	1:	lsr r19
 1985 0692 2795      		ror r18
 1986 0694 5A95      		dec r21
 1987 0696 01F4      		brne 1b
 1988 0698 2095      		com r18
 1989 069a 3095      		com r19
 1990 069c 2170      		andi r18,lo8(1)
 1991 069e 3070      		andi r19,hi8(1)
 1992               	.LM327:
 1993 06a0 C901      		movw r24,r18
 1994               	/* epilogue start */
 1995 06a2 0895      		ret
 1996               	.LFE51:
 1998               	.global	check_color
 2000               	check_color:
 2001               	.LFB53:
 2002               	.LM328:
 2003               	/* prologue: function */
 2004               	/* frame size = 0 */
 2005               	.LM329:
 2006 06a4 8091 0000 		lds r24,file
 2007 06a8 9091 0000 		lds r25,(file)+1
 2008 06ac 62E0      		ldi r22,lo8(2)
 2009 06ae 70E0      		ldi r23,hi8(2)
 2010 06b0 0E94 0000 		call __divmodhi4
 2011 06b4 9C01      		movw r18,r24
 2012 06b6 8091 0000 		lds r24,rank
 2013 06ba 9091 0000 		lds r25,(rank)+1
 2014 06be 62E0      		ldi r22,lo8(2)
 2015 06c0 70E0      		ldi r23,hi8(2)
 2016 06c2 0E94 0000 		call __divmodhi4
 2017 06c6 2817      		cp r18,r24
 2018 06c8 3907      		cpc r19,r25
 2019 06ca 01F4      		brne .L176
 2020               	.LM330:
 2021 06cc 1092 0000 		sts (color)+1,__zero_reg__
 2022 06d0 1092 0000 		sts color,__zero_reg__
 2023 06d4 00C0      		rjmp .L177
 2024               	.L176:
 2025               	.LM331:
 2026 06d6 81E0      		ldi r24,lo8(1)
 2027 06d8 90E0      		ldi r25,hi8(1)
 2028 06da 9093 0000 		sts (color)+1,r25
 2029 06de 8093 0000 		sts color,r24
 2030               	.L177:
 2031               	.LM332:
 2032 06e2 8091 0000 		lds r24,filew5
 2033 06e6 9091 0000 		lds r25,(filew5)+1
 2034 06ea 62E0      		ldi r22,lo8(2)
 2035 06ec 70E0      		ldi r23,hi8(2)
 2036 06ee 0E94 0000 		call __divmodhi4
 2037 06f2 9C01      		movw r18,r24
 2038 06f4 8091 0000 		lds r24,rankw5
 2039 06f8 9091 0000 		lds r25,(rankw5)+1
 2040 06fc 62E0      		ldi r22,lo8(2)
 2041 06fe 70E0      		ldi r23,hi8(2)
 2042 0700 0E94 0000 		call __divmodhi4
 2043 0704 2817      		cp r18,r24
 2044 0706 3907      		cpc r19,r25
 2045 0708 01F4      		brne .L178
 2046               	.LM333:
 2047 070a 1092 0000 		sts (ke1_color)+1,__zero_reg__
 2048 070e 1092 0000 		sts ke1_color,__zero_reg__
 2049 0712 00C0      		rjmp .L179
 2050               	.L178:
 2051               	.LM334:
 2052 0714 81E0      		ldi r24,lo8(1)
 2053 0716 90E0      		ldi r25,hi8(1)
 2054 0718 9093 0000 		sts (ke1_color)+1,r25
 2055 071c 8093 0000 		sts ke1_color,r24
 2056               	.L179:
 2057               	.LM335:
 2058 0720 8091 0000 		lds r24,fileb5
 2059 0724 9091 0000 		lds r25,(fileb5)+1
 2060 0728 62E0      		ldi r22,lo8(2)
 2061 072a 70E0      		ldi r23,hi8(2)
 2062 072c 0E94 0000 		call __divmodhi4
 2063 0730 9C01      		movw r18,r24
 2064 0732 8091 0000 		lds r24,rankb5
 2065 0736 9091 0000 		lds r25,(rankb5)+1
 2066 073a 62E0      		ldi r22,lo8(2)
 2067 073c 70E0      		ldi r23,hi8(2)
 2068 073e 0E94 0000 		call __divmodhi4
 2069 0742 2817      		cp r18,r24
 2070 0744 3907      		cpc r19,r25
 2071 0746 01F4      		brne .L180
 2072               	.LM336:
 2073 0748 1092 0000 		sts (ke8_color)+1,__zero_reg__
 2074 074c 1092 0000 		sts ke8_color,__zero_reg__
 2075 0750 00C0      		rjmp .L181
 2076               	.L180:
 2077               	.LM337:
 2078 0752 81E0      		ldi r24,lo8(1)
 2079 0754 90E0      		ldi r25,hi8(1)
 2080 0756 9093 0000 		sts (ke8_color)+1,r25
 2081 075a 8093 0000 		sts ke8_color,r24
 2082               	.L181:
 2083               	.LM338:
 2084 075e 8091 0000 		lds r24,filew4
 2085 0762 9091 0000 		lds r25,(filew4)+1
 2086 0766 62E0      		ldi r22,lo8(2)
 2087 0768 70E0      		ldi r23,hi8(2)
 2088 076a 0E94 0000 		call __divmodhi4
 2089 076e 9C01      		movw r18,r24
 2090 0770 8091 0000 		lds r24,rankw4
 2091 0774 9091 0000 		lds r25,(rankw4)+1
 2092 0778 62E0      		ldi r22,lo8(2)
 2093 077a 70E0      		ldi r23,hi8(2)
 2094 077c 0E94 0000 		call __divmodhi4
 2095 0780 2817      		cp r18,r24
 2096 0782 3907      		cpc r19,r25
 2097 0784 01F4      		brne .L182
 2098               	.LM339:
 2099 0786 1092 0000 		sts (qd1_color)+1,__zero_reg__
 2100 078a 1092 0000 		sts qd1_color,__zero_reg__
 2101 078e 00C0      		rjmp .L183
 2102               	.L182:
 2103               	.LM340:
 2104 0790 81E0      		ldi r24,lo8(1)
 2105 0792 90E0      		ldi r25,hi8(1)
 2106 0794 9093 0000 		sts (qd1_color)+1,r25
 2107 0798 8093 0000 		sts qd1_color,r24
 2108               	.L183:
 2109               	.LM341:
 2110 079c 8091 0000 		lds r24,fileb4
 2111 07a0 9091 0000 		lds r25,(fileb4)+1
 2112 07a4 62E0      		ldi r22,lo8(2)
 2113 07a6 70E0      		ldi r23,hi8(2)
 2114 07a8 0E94 0000 		call __divmodhi4
 2115 07ac 9C01      		movw r18,r24
 2116 07ae 8091 0000 		lds r24,rankb4
 2117 07b2 9091 0000 		lds r25,(rankb4)+1
 2118 07b6 62E0      		ldi r22,lo8(2)
 2119 07b8 70E0      		ldi r23,hi8(2)
 2120 07ba 0E94 0000 		call __divmodhi4
 2121 07be 2817      		cp r18,r24
 2122 07c0 3907      		cpc r19,r25
 2123 07c2 01F4      		brne .L184
 2124               	.LM342:
 2125 07c4 1092 0000 		sts (qd8_color)+1,__zero_reg__
 2126 07c8 1092 0000 		sts qd8_color,__zero_reg__
 2127 07cc 0895      		ret
 2128               	.L184:
 2129               	.LM343:
 2130 07ce 81E0      		ldi r24,lo8(1)
 2131 07d0 90E0      		ldi r25,hi8(1)
 2132 07d2 9093 0000 		sts (qd8_color)+1,r25
 2133 07d6 8093 0000 		sts qd8_color,r24
 2134 07da 0895      		ret
 2135               	.LFE53:
 2137               		.data
 2138               	.LC0:
 2139 0000 4245 464F 		.string	"BEFORE"
 2139      5245 00
 2140               	.LC1:
 2141 0007 4146 5445 		.string	"AFTER"
 2141      5200 
 2142               		.text
 2143               	.global	main
 2145               	main:
 2146               	.LFB54:
 2147               	.LM344:
 2148 07dc AF92      		push r10
 2149 07de BF92      		push r11
 2150 07e0 CF92      		push r12
 2151 07e2 DF92      		push r13
 2152 07e4 EF92      		push r14
 2153 07e6 FF92      		push r15
 2154 07e8 0F93      		push r16
 2155 07ea 1F93      		push r17
 2156 07ec DF93      		push r29
 2157 07ee CF93      		push r28
 2158 07f0 CDB7      		in r28,__SP_L__
 2159 07f2 DEB7      		in r29,__SP_H__
 2160 07f4 C85C      		subi r28,lo8(-(-200))
 2161 07f6 D040      		sbci r29,hi8(-(-200))
 2162 07f8 0FB6      		in __tmp_reg__,__SREG__
 2163 07fa F894      		cli
 2164 07fc DEBF      		out __SP_H__,r29
 2165 07fe 0FBE      		out __SREG__,__tmp_reg__
 2166 0800 CDBF      		out __SP_L__,r28
 2167               	/* prologue: function */
 2168               	/* frame size = 200 */
 2169               	.LM345:
 2170 0802 82E0      		ldi r24,lo8(2)
 2171 0804 0E94 0000 		call lcd_init
 2172               	.LM346:
 2173 0808 81E0      		ldi r24,lo8(1)
 2174 080a 60E0      		ldi r22,lo8(0)
 2175 080c 0E94 0000 		call lcd_byte
 2176               	.LM347:
 2177 0810 8FEF      		ldi r24,lo8(-1)
 2178 0812 87BB      		out 55-32,r24
 2179               	.LM348:
 2180 0814 DE01      		movw r26,r28
 2181 0816 1196      		adiw r26,1
 2182 0818 E0E0      		ldi r30,lo8(C.22.2010)
 2183 081a F0E0      		ldi r31,hi8(C.22.2010)
 2184 081c 88EC      		ldi r24,lo8(-56)
 2185               	.L188:
 2186 081e 0190      		ld r0,Z+
 2187 0820 0D92      		st X+,r0
 2188 0822 8150      		subi r24,lo8(-(-1))
 2189 0824 01F4      		brne .L188
 2190               	.LM349:
 2191 0826 23E0      		ldi r18,lo8(3)
 2192 0828 30E0      		ldi r19,hi8(3)
 2193 082a 3093 0000 		sts (len)+1,r19
 2194 082e 2093 0000 		sts len,r18
 2195               	.LM350:
 2196 0832 84E0      		ldi r24,lo8(4)
 2197 0834 90E0      		ldi r25,hi8(4)
 2198 0836 9093 0000 		sts (letter)+1,r25
 2199 083a 8093 0000 		sts letter,r24
 2200               	.LM351:
 2201 083e 3093 0000 		sts (file)+1,r19
 2202 0842 2093 0000 		sts file,r18
 2203 0846 3093 0000 		sts (rank)+1,r19
 2204 084a 2093 0000 		sts rank,r18
 2205               	.LM352:
 2206 084e 85E0      		ldi r24,lo8(5)
 2207 0850 90E0      		ldi r25,hi8(5)
 2208 0852 60E0      		ldi r22,lo8(0)
 2209 0854 70E0      		ldi r23,hi8(0)
 2210 0856 40E0      		ldi r20,lo8(.LC0)
 2211 0858 50E0      		ldi r21,hi8(.LC0)
 2212 085a 0E94 0000 		call lcd_write_string_xy
 2213               	.LM353:
 2214 085e FE01      		movw r30,r28
 2215 0860 E55A      		subi r30,lo8(-(91))
 2216 0862 FF4F      		sbci r31,hi8(-(91))
 2217 0864 4081      		ld r20,Z
 2218 0866 5181      		ldd r21,Z+1
 2219 0868 82E0      		ldi r24,lo8(2)
 2220 086a 90E0      		ldi r25,hi8(2)
 2221 086c 61E0      		ldi r22,lo8(1)
 2222 086e 70E0      		ldi r23,hi8(1)
 2223 0870 22E0      		ldi r18,lo8(2)
 2224 0872 30E0      		ldi r19,hi8(2)
 2225 0874 0E94 0000 		call lcd_write_int_xy
 2226               	.LM354:
 2227 0878 8091 0000 		lds r24,file
 2228 087c 9091 0000 		lds r25,file+1
 2229 0880 FC01      		movw r30,r24
 2230 0882 23E0      		ldi r18,3
 2231 0884 EE0F      	1:	lsl r30
 2232 0886 FF1F      		rol r31
 2233 0888 2A95      		dec r18
 2234 088a 01F4      		brne 1b
 2235 088c 880F      		lsl r24
 2236 088e 991F      		rol r25
 2237 0890 E80F      		add r30,r24
 2238 0892 F91F      		adc r31,r25
 2239 0894 8091 0000 		lds r24,rank
 2240 0898 9091 0000 		lds r25,(rank)+1
 2241 089c E80F      		add r30,r24
 2242 089e F91F      		adc r31,r25
 2243 08a0 EE0F      		lsl r30
 2244 08a2 FF1F      		rol r31
 2245 08a4 8E01      		movw r16,r28
 2246 08a6 0F5F      		subi r16,lo8(-(1))
 2247 08a8 1F4F      		sbci r17,hi8(-(1))
 2248 08aa E00F      		add r30,r16
 2249 08ac F11F      		adc r31,r17
 2250 08ae 4081      		ld r20,Z
 2251 08b0 5181      		ldd r21,Z+1
 2252 08b2 8CE0      		ldi r24,lo8(12)
 2253 08b4 90E0      		ldi r25,hi8(12)
 2254 08b6 61E0      		ldi r22,lo8(1)
 2255 08b8 70E0      		ldi r23,hi8(1)
 2256 08ba 22E0      		ldi r18,lo8(2)
 2257 08bc 30E0      		ldi r19,hi8(2)
 2258 08be 0E94 0000 		call lcd_write_int_xy
 2259               	.LM355:
 2260 08c2 82E0      		ldi r24,lo8(2)
 2261 08c4 90E0      		ldi r25,hi8(2)
 2262 08c6 0E94 0000 		call delay_sec
 2263               	.LM356:
 2264 08ca 8091 0000 		lds r24,len
 2265 08ce 9091 0000 		lds r25,(len)+1
 2266 08d2 8230      		cpi r24,2
 2267 08d4 9105      		cpc r25,__zero_reg__
 2268 08d6 01F0      		breq .+2
 2269 08d8 00C0      		rjmp .L189
 2270               	.LM357:
 2271 08da 41E0      		ldi r20,lo8(1)
 2272 08dc 50E0      		ldi r21,hi8(1)
 2273 08de 5093 0000 		sts (pawn)+1,r21
 2274 08e2 4093 0000 		sts pawn,r20
 2275               	.LM358:
 2276 08e6 8091 0000 		lds r24,moves
 2277 08ea 9091 0000 		lds r25,moves+1
 2278 08ee 80FD      		sbrc r24,0
 2279 08f0 00C0      		rjmp .L190
 2280               	.LM359:
 2281 08f2 6091 0000 		lds r22,file
 2282 08f6 7091 0000 		lds r23,file+1
 2283 08fa 2091 0000 		lds r18,rank
 2284 08fe 3091 0000 		lds r19,(rank)+1
 2285 0902 CB01      		movw r24,r22
 2286 0904 FC01      		movw r30,r24
 2287 0906 B3E0      		ldi r27,3
 2288 0908 EE0F      	1:	lsl r30
 2289 090a FF1F      		rol r31
 2290 090c BA95      		dec r27
 2291 090e 01F4      		brne 1b
 2292 0910 880F      		lsl r24
 2293 0912 991F      		rol r25
 2294 0914 E80F      		add r30,r24
 2295 0916 F91F      		adc r31,r25
 2296 0918 E20F      		add r30,r18
 2297 091a F31F      		adc r31,r19
 2298 091c E41B      		sub r30,r20
 2299 091e F50B      		sbc r31,r21
 2300 0920 EE0F      		lsl r30
 2301 0922 FF1F      		rol r31
 2302 0924 E00F      		add r30,r16
 2303 0926 F11F      		adc r31,r17
 2304 0928 8081      		ld r24,Z
 2305 092a 9181      		ldd r25,Z+1
 2306 092c 0C97      		sbiw r24,12
 2307 092e 01F4      		brne .L191
 2308               	.LM360:
 2309 0930 6093 0000 		sts x2,r22
 2310 0934 7093 0000 		sts x2+1,r23
 2311 0938 3093 0000 		sts (y2)+1,r19
 2312 093c 2093 0000 		sts y2,r18
 2313               	.LM361:
 2314 0940 8091 0000 		lds r24,file
 2315 0944 9091 0000 		lds r25,(file)+1
 2316 0948 9093 0000 		sts (x1)+1,r25
 2317 094c 8093 0000 		sts x1,r24
 2318 0950 A901      		movw r20,r18
 2319 0952 4150      		subi r20,lo8(-(-1))
 2320 0954 5040      		sbci r21,hi8(-(-1))
 2321 0956 00C0      		rjmp .L291
 2322               	.L191:
 2323               	.LM362:
 2324 0958 CB01      		movw r24,r22
 2325 095a FC01      		movw r30,r24
 2326 095c B3E0      		ldi r27,3
 2327 095e EE0F      	1:	lsl r30
 2328 0960 FF1F      		rol r31
 2329 0962 BA95      		dec r27
 2330 0964 01F4      		brne 1b
 2331 0966 880F      		lsl r24
 2332 0968 991F      		rol r25
 2333 096a E80F      		add r30,r24
 2334 096c F91F      		adc r31,r25
 2335 096e E20F      		add r30,r18
 2336 0970 F31F      		adc r31,r19
 2337 0972 3297      		sbiw r30,2
 2338 0974 EE0F      		lsl r30
 2339 0976 FF1F      		rol r31
 2340 0978 E00F      		add r30,r16
 2341 097a F11F      		adc r31,r17
 2342 097c 8081      		ld r24,Z
 2343 097e 9181      		ldd r25,Z+1
 2344 0980 0C97      		sbiw r24,12
 2345 0982 01F0      		breq .+4
 2346 0984 0C94 0000 		jmp .L192
 2347               	.LM363:
 2348 0988 6093 0000 		sts x2,r22
 2349 098c 7093 0000 		sts x2+1,r23
 2350 0990 3093 0000 		sts (y2)+1,r19
 2351 0994 2093 0000 		sts y2,r18
 2352               	.LM364:
 2353 0998 8091 0000 		lds r24,file
 2354 099c 9091 0000 		lds r25,(file)+1
 2355 09a0 9093 0000 		sts (x1)+1,r25
 2356 09a4 8093 0000 		sts x1,r24
 2357 09a8 A901      		movw r20,r18
 2358 09aa 4250      		subi r20,lo8(-(-2))
 2359 09ac 5040      		sbci r21,hi8(-(-2))
 2360 09ae 00C0      		rjmp .L291
 2361               	.L190:
 2362               	.LM365:
 2363 09b0 62E0      		ldi r22,lo8(2)
 2364 09b2 70E0      		ldi r23,hi8(2)
 2365 09b4 0E94 0000 		call __divmodhi4
 2366 09b8 0197      		sbiw r24,1
 2367 09ba 01F0      		breq .+4
 2368 09bc 0C94 0000 		jmp .L192
 2369               	.LM366:
 2370 09c0 6091 0000 		lds r22,file
 2371 09c4 7091 0000 		lds r23,file+1
 2372 09c8 2091 0000 		lds r18,rank
 2373 09cc 3091 0000 		lds r19,(rank)+1
 2374 09d0 CB01      		movw r24,r22
 2375 09d2 FC01      		movw r30,r24
 2376 09d4 43E0      		ldi r20,3
 2377 09d6 EE0F      	1:	lsl r30
 2378 09d8 FF1F      		rol r31
 2379 09da 4A95      		dec r20
 2380 09dc 01F4      		brne 1b
 2381 09de 880F      		lsl r24
 2382 09e0 991F      		rol r25
 2383 09e2 E80F      		add r30,r24
 2384 09e4 F91F      		adc r31,r25
 2385 09e6 E20F      		add r30,r18
 2386 09e8 F31F      		adc r31,r19
 2387 09ea 3196      		adiw r30,1
 2388 09ec EE0F      		lsl r30
 2389 09ee FF1F      		rol r31
 2390 09f0 E00F      		add r30,r16
 2391 09f2 F11F      		adc r31,r17
 2392 09f4 8081      		ld r24,Z
 2393 09f6 9181      		ldd r25,Z+1
 2394 09f8 0797      		sbiw r24,7
 2395 09fa 01F0      		breq .+2
 2396 09fc 00C0      		rjmp .L193
 2397               	.LM367:
 2398 09fe 6093 0000 		sts x2,r22
 2399 0a02 7093 0000 		sts x2+1,r23
 2400 0a06 3093 0000 		sts (y2)+1,r19
 2401 0a0a 2093 0000 		sts y2,r18
 2402               	.LM368:
 2403 0a0e 8091 0000 		lds r24,file
 2404 0a12 9091 0000 		lds r25,(file)+1
 2405 0a16 9093 0000 		sts (x1)+1,r25
 2406 0a1a 8093 0000 		sts x1,r24
 2407 0a1e A901      		movw r20,r18
 2408 0a20 4F5F      		subi r20,lo8(-(1))
 2409 0a22 5F4F      		sbci r21,hi8(-(1))
 2410               	.L291:
 2411 0a24 5093 0000 		sts (y1)+1,r21
 2412 0a28 4093 0000 		sts y1,r20
 2413               	.LM369:
 2414 0a2c CB01      		movw r24,r22
 2415 0a2e DB01      		movw r26,r22
 2416 0a30 E3E0      		ldi r30,3
 2417 0a32 AA0F      	1:	lsl r26
 2418 0a34 BB1F      		rol r27
 2419 0a36 EA95      		dec r30
 2420 0a38 01F4      		brne 1b
 2421 0a3a 880F      		lsl r24
 2422 0a3c 991F      		rol r25
 2423 0a3e A80F      		add r26,r24
 2424 0a40 B91F      		adc r27,r25
 2425 0a42 A20F      		add r26,r18
 2426 0a44 B31F      		adc r27,r19
 2427 0a46 AA0F      		lsl r26
 2428 0a48 BB1F      		rol r27
 2429 0a4a A00F      		add r26,r16
 2430 0a4c B11F      		adc r27,r17
 2431 0a4e CB01      		movw r24,r22
 2432 0a50 FB01      		movw r30,r22
 2433 0a52 33E0      		ldi r19,3
 2434 0a54 EE0F      	1:	lsl r30
 2435 0a56 FF1F      		rol r31
 2436 0a58 3A95      		dec r19
 2437 0a5a 01F4      		brne 1b
 2438 0a5c 880F      		lsl r24
 2439 0a5e 991F      		rol r25
 2440 0a60 E80F      		add r30,r24
 2441 0a62 F91F      		adc r31,r25
 2442 0a64 E40F      		add r30,r20
 2443 0a66 F51F      		adc r31,r21
 2444 0a68 EE0F      		lsl r30
 2445 0a6a FF1F      		rol r31
 2446 0a6c E00F      		add r30,r16
 2447 0a6e F11F      		adc r31,r17
 2448 0a70 8081      		ld r24,Z
 2449 0a72 9181      		ldd r25,Z+1
 2450 0a74 8D93      		st X+,r24
 2451 0a76 9C93      		st X,r25
 2452               	.LM370:
 2453 0a78 CB01      		movw r24,r22
 2454 0a7a 9B01      		movw r18,r22
 2455 0a7c 73E0      		ldi r23,3
 2456 0a7e 220F      	1:	lsl r18
 2457 0a80 331F      		rol r19
 2458 0a82 7A95      		dec r23
 2459 0a84 01F4      		brne 1b
 2460 0a86 880F      		lsl r24
 2461 0a88 991F      		rol r25
 2462 0a8a 280F      		add r18,r24
 2463 0a8c 391F      		adc r19,r25
 2464 0a8e 240F      		add r18,r20
 2465 0a90 351F      		adc r19,r21
 2466 0a92 220F      		lsl r18
 2467 0a94 331F      		rol r19
 2468 0a96 020F      		add r16,r18
 2469 0a98 131F      		adc r17,r19
 2470 0a9a F801      		movw r30,r16
 2471 0a9c 0C94 0000 		jmp .L283
 2472               	.L193:
 2473               	.LM371:
 2474 0aa0 CB01      		movw r24,r22
 2475 0aa2 FC01      		movw r30,r24
 2476 0aa4 43E0      		ldi r20,3
 2477 0aa6 EE0F      	1:	lsl r30
 2478 0aa8 FF1F      		rol r31
 2479 0aaa 4A95      		dec r20
 2480 0aac 01F4      		brne 1b
 2481 0aae 880F      		lsl r24
 2482 0ab0 991F      		rol r25
 2483 0ab2 E80F      		add r30,r24
 2484 0ab4 F91F      		adc r31,r25
 2485 0ab6 E20F      		add r30,r18
 2486 0ab8 F31F      		adc r31,r19
 2487 0aba 3296      		adiw r30,2
 2488 0abc EE0F      		lsl r30
 2489 0abe FF1F      		rol r31
 2490 0ac0 E00F      		add r30,r16
 2491 0ac2 F11F      		adc r31,r17
 2492 0ac4 8081      		ld r24,Z
 2493 0ac6 9181      		ldd r25,Z+1
 2494 0ac8 0797      		sbiw r24,7
 2495 0aca 01F0      		breq .+4
 2496 0acc 0C94 0000 		jmp .L192
 2497               	.LM372:
 2498 0ad0 6093 0000 		sts x2,r22
 2499 0ad4 7093 0000 		sts x2+1,r23
 2500 0ad8 3093 0000 		sts (y2)+1,r19
 2501 0adc 2093 0000 		sts y2,r18
 2502               	.LM373:
 2503 0ae0 8091 0000 		lds r24,file
 2504 0ae4 9091 0000 		lds r25,(file)+1
 2505 0ae8 9093 0000 		sts (x1)+1,r25
 2506 0aec 8093 0000 		sts x1,r24
 2507 0af0 A901      		movw r20,r18
 2508 0af2 4E5F      		subi r20,lo8(-(2))
 2509 0af4 5F4F      		sbci r21,hi8(-(2))
 2510 0af6 00C0      		rjmp .L291
 2511               	.L189:
 2512               	.LM374:
 2513 0af8 8330      		cpi r24,3
 2514 0afa 9105      		cpc r25,__zero_reg__
 2515 0afc 01F0      		breq .+4
 2516 0afe 0C94 0000 		jmp .L194
 2517               	.LM375:
 2518 0b02 8091 0000 		lds r24,letter
 2519 0b06 9091 0000 		lds r25,(letter)+1
 2520 0b0a 0097      		sbiw r24,0
 2521 0b0c 01F0      		breq .+2
 2522 0b0e 00C0      		rjmp .L195
 2523               	.L196:
 2524               	.LM376:
 2525 0b10 81E0      		ldi r24,lo8(1)
 2526 0b12 90E0      		ldi r25,hi8(1)
 2527 0b14 9093 0000 		sts (hrook)+1,r25
 2528 0b18 8093 0000 		sts hrook,r24
 2529               	.LM377:
 2530 0b1c 8091 0000 		lds r24,moves
 2531 0b20 9091 0000 		lds r25,moves+1
 2532 0b24 80FD      		sbrc r24,0
 2533 0b26 00C0      		rjmp .L197
 2534               	.LM378:
 2535 0b28 8091 0000 		lds r24,filew1
 2536 0b2c 9091 0000 		lds r25,(filew1)+1
 2537 0b30 2091 0000 		lds r18,file
 2538 0b34 3091 0000 		lds r19,(file)+1
 2539 0b38 6091 0000 		lds r22,rank
 2540 0b3c 7091 0000 		lds r23,(rank)+1
 2541 0b40 0091 0000 		lds r16,rankw1
 2542 0b44 1091 0000 		lds r17,(rankw1)+1
 2543 0b48 8217      		cp r24,r18
 2544 0b4a 9307      		cpc r25,r19
 2545 0b4c 01F0      		breq .+2
 2546 0b4e 00C0      		rjmp .L198
 2547 0b50 0617      		cp r16,r22
 2548 0b52 1707      		cpc r17,r23
 2549 0b54 01F4      		brne .+2
 2550 0b56 00C0      		rjmp .L199
 2551               	.LM379:
 2552 0b58 9093 0000 		sts (x2)+1,r25
 2553 0b5c 8093 0000 		sts x2,r24
 2554 0b60 9093 0000 		sts (x1)+1,r25
 2555 0b64 8093 0000 		sts x1,r24
 2556               	.LM380:
 2557 0b68 7093 0000 		sts (y2)+1,r23
 2558 0b6c 6093 0000 		sts y2,r22
 2559 0b70 1093 0000 		sts (y1)+1,r17
 2560 0b74 0093 0000 		sts y1,r16
 2561               	.LM381:
 2562 0b78 2091 0000 		lds r18,filew1
 2563 0b7c 3091 0000 		lds r19,filew1+1
 2564 0b80 8091 0000 		lds r24,file
 2565 0b84 9091 0000 		lds r25,file+1
 2566 0b88 DC01      		movw r26,r24
 2567 0b8a 53E0      		ldi r21,3
 2568 0b8c AA0F      	1:	lsl r26
 2569 0b8e BB1F      		rol r27
 2570 0b90 5A95      		dec r21
 2571 0b92 01F4      		brne 1b
 2572 0b94 880F      		lsl r24
 2573 0b96 991F      		rol r25
 2574 0b98 A80F      		add r26,r24
 2575 0b9a B91F      		adc r27,r25
 2576 0b9c A60F      		add r26,r22
 2577 0b9e B71F      		adc r27,r23
 2578 0ba0 AA0F      		lsl r26
 2579 0ba2 BB1F      		rol r27
 2580 0ba4 AE01      		movw r20,r28
 2581 0ba6 4F5F      		subi r20,lo8(-(1))
 2582 0ba8 5F4F      		sbci r21,hi8(-(1))
 2583 0baa A40F      		add r26,r20
 2584 0bac B51F      		adc r27,r21
 2585 0bae C901      		movw r24,r18
 2586 0bb0 FC01      		movw r30,r24
 2587 0bb2 EE0F      		lsl r30
 2588 0bb4 FF1F      		rol r31
 2589 0bb6 EE0F      		lsl r30
 2590 0bb8 FF1F      		rol r31
 2591 0bba EE0F      		lsl r30
 2592 0bbc FF1F      		rol r31
 2593 0bbe 880F      		lsl r24
 2594 0bc0 991F      		rol r25
 2595 0bc2 E80F      		add r30,r24
 2596 0bc4 F91F      		adc r31,r25
 2597 0bc6 E00F      		add r30,r16
 2598 0bc8 F11F      		adc r31,r17
 2599 0bca EE0F      		lsl r30
 2600 0bcc FF1F      		rol r31
 2601 0bce E40F      		add r30,r20
 2602 0bd0 F51F      		adc r31,r21
 2603 0bd2 8081      		ld r24,Z
 2604 0bd4 9181      		ldd r25,Z+1
 2605 0bd6 8D93      		st X+,r24
 2606 0bd8 9C93      		st X,r25
 2607               	.LM382:
 2608 0bda C901      		movw r24,r18
 2609 0bdc 9C01      		movw r18,r24
 2610 0bde A3E0      		ldi r26,3
 2611 0be0 220F      	1:	lsl r18
 2612 0be2 331F      		rol r19
 2613 0be4 AA95      		dec r26
 2614 0be6 01F4      		brne 1b
 2615 0be8 880F      		lsl r24
 2616 0bea 991F      		rol r25
 2617 0bec 280F      		add r18,r24
 2618 0bee 391F      		adc r19,r25
 2619 0bf0 200F      		add r18,r16
 2620 0bf2 311F      		adc r19,r17
 2621 0bf4 220F      		lsl r18
 2622 0bf6 331F      		rol r19
 2623 0bf8 420F      		add r20,r18
 2624 0bfa 531F      		adc r21,r19
 2625 0bfc FA01      		movw r30,r20
 2626 0bfe 1182      		std Z+1,__zero_reg__
 2627 0c00 1082      		st Z,__zero_reg__
 2628               	.LM383:
 2629 0c02 7093 0000 		sts (rankw1)+1,r23
 2630 0c06 6093 0000 		sts rankw1,r22
 2631 0c0a 0C94 0000 		jmp .L192
 2632               	.L198:
 2633               	.LM384:
 2634 0c0e 0617      		cp r16,r22
 2635 0c10 1707      		cpc r17,r23
 2636 0c12 01F0      		breq .+2
 2637 0c14 00C0      		rjmp .L199
 2638               	.LM385:
 2639 0c16 3093 0000 		sts (x2)+1,r19
 2640 0c1a 2093 0000 		sts x2,r18
 2641 0c1e 9093 0000 		sts (x1)+1,r25
 2642 0c22 8093 0000 		sts x1,r24
 2643               	.LM386:
 2644 0c26 1093 0000 		sts (y2)+1,r17
 2645 0c2a 0093 0000 		sts y2,r16
 2646 0c2e 1093 0000 		sts (y1)+1,r17
 2647 0c32 0093 0000 		sts y1,r16
 2648               	.LM387:
 2649 0c36 6091 0000 		lds r22,file
 2650 0c3a 7091 0000 		lds r23,file+1
 2651 0c3e 2091 0000 		lds r18,filew1
 2652 0c42 3091 0000 		lds r19,filew1+1
 2653 0c46 CB01      		movw r24,r22
 2654 0c48 DC01      		movw r26,r24
 2655 0c4a 53E0      		ldi r21,3
 2656 0c4c AA0F      	1:	lsl r26
 2657 0c4e BB1F      		rol r27
 2658 0c50 5A95      		dec r21
 2659 0c52 01F4      		brne 1b
 2660 0c54 880F      		lsl r24
 2661 0c56 991F      		rol r25
 2662 0c58 A80F      		add r26,r24
 2663 0c5a B91F      		adc r27,r25
 2664 0c5c A00F      		add r26,r16
 2665 0c5e B11F      		adc r27,r17
 2666 0c60 AA0F      		lsl r26
 2667 0c62 BB1F      		rol r27
 2668 0c64 AE01      		movw r20,r28
 2669 0c66 4F5F      		subi r20,lo8(-(1))
 2670 0c68 5F4F      		sbci r21,hi8(-(1))
 2671 0c6a A40F      		add r26,r20
 2672 0c6c B51F      		adc r27,r21
 2673 0c6e C901      		movw r24,r18
 2674 0c70 FC01      		movw r30,r24
 2675 0c72 EE0F      		lsl r30
 2676 0c74 FF1F      		rol r31
 2677 0c76 EE0F      		lsl r30
 2678 0c78 FF1F      		rol r31
 2679 0c7a EE0F      		lsl r30
 2680 0c7c FF1F      		rol r31
 2681 0c7e 880F      		lsl r24
 2682 0c80 991F      		rol r25
 2683 0c82 E80F      		add r30,r24
 2684 0c84 F91F      		adc r31,r25
 2685 0c86 E00F      		add r30,r16
 2686 0c88 F11F      		adc r31,r17
 2687 0c8a EE0F      		lsl r30
 2688 0c8c FF1F      		rol r31
 2689 0c8e E40F      		add r30,r20
 2690 0c90 F51F      		adc r31,r21
 2691 0c92 8081      		ld r24,Z
 2692 0c94 9181      		ldd r25,Z+1
 2693 0c96 8D93      		st X+,r24
 2694 0c98 9C93      		st X,r25
 2695               	.LM388:
 2696 0c9a C901      		movw r24,r18
 2697 0c9c 9C01      		movw r18,r24
 2698 0c9e A3E0      		ldi r26,3
 2699 0ca0 220F      	1:	lsl r18
 2700 0ca2 331F      		rol r19
 2701 0ca4 AA95      		dec r26
 2702 0ca6 01F4      		brne 1b
 2703 0ca8 880F      		lsl r24
 2704 0caa 991F      		rol r25
 2705 0cac 280F      		add r18,r24
 2706 0cae 391F      		adc r19,r25
 2707 0cb0 200F      		add r18,r16
 2708 0cb2 311F      		adc r19,r17
 2709 0cb4 220F      		lsl r18
 2710 0cb6 331F      		rol r19
 2711 0cb8 420F      		add r20,r18
 2712 0cba 531F      		adc r21,r19
 2713 0cbc FA01      		movw r30,r20
 2714 0cbe 1182      		std Z+1,__zero_reg__
 2715 0cc0 1082      		st Z,__zero_reg__
 2716               	.LM389:
 2717 0cc2 6093 0000 		sts filew1,r22
 2718 0cc6 7093 0000 		sts filew1+1,r23
 2719 0cca 0C94 0000 		jmp .L192
 2720               	.L199:
 2721               	.LM390:
 2722 0cce 8091 0000 		lds r24,filew8
 2723 0cd2 9091 0000 		lds r25,(filew8)+1
 2724 0cd6 6091 0000 		lds r22,rank
 2725 0cda 7091 0000 		lds r23,(rank)+1
 2726 0cde 0091 0000 		lds r16,rankw8
 2727 0ce2 1091 0000 		lds r17,(rankw8)+1
 2728 0ce6 8217      		cp r24,r18
 2729 0ce8 9307      		cpc r25,r19
 2730 0cea 01F0      		breq .+2
 2731 0cec 00C0      		rjmp .L200
 2732 0cee 0617      		cp r16,r22
 2733 0cf0 1707      		cpc r17,r23
 2734 0cf2 01F4      		brne .+4
 2735 0cf4 0C94 0000 		jmp .L192
 2736               	.LM391:
 2737 0cf8 3093 0000 		sts (x2)+1,r19
 2738 0cfc 2093 0000 		sts x2,r18
 2739 0d00 3093 0000 		sts (x1)+1,r19
 2740 0d04 2093 0000 		sts x1,r18
 2741               	.LM392:
 2742 0d08 7093 0000 		sts (y2)+1,r23
 2743 0d0c 6093 0000 		sts y2,r22
 2744 0d10 1093 0000 		sts (y1)+1,r17
 2745 0d14 0093 0000 		sts y1,r16
 2746               	.LM393:
 2747 0d18 2091 0000 		lds r18,filew8
 2748 0d1c 3091 0000 		lds r19,filew8+1
 2749 0d20 8091 0000 		lds r24,file
 2750 0d24 9091 0000 		lds r25,file+1
 2751 0d28 DC01      		movw r26,r24
 2752 0d2a 53E0      		ldi r21,3
 2753 0d2c AA0F      	1:	lsl r26
 2754 0d2e BB1F      		rol r27
 2755 0d30 5A95      		dec r21
 2756 0d32 01F4      		brne 1b
 2757 0d34 880F      		lsl r24
 2758 0d36 991F      		rol r25
 2759 0d38 A80F      		add r26,r24
 2760 0d3a B91F      		adc r27,r25
 2761 0d3c A60F      		add r26,r22
 2762 0d3e B71F      		adc r27,r23
 2763 0d40 AA0F      		lsl r26
 2764 0d42 BB1F      		rol r27
 2765 0d44 AE01      		movw r20,r28
 2766 0d46 4F5F      		subi r20,lo8(-(1))
 2767 0d48 5F4F      		sbci r21,hi8(-(1))
 2768 0d4a A40F      		add r26,r20
 2769 0d4c B51F      		adc r27,r21
 2770 0d4e C901      		movw r24,r18
 2771 0d50 FC01      		movw r30,r24
 2772 0d52 EE0F      		lsl r30
 2773 0d54 FF1F      		rol r31
 2774 0d56 EE0F      		lsl r30
 2775 0d58 FF1F      		rol r31
 2776 0d5a EE0F      		lsl r30
 2777 0d5c FF1F      		rol r31
 2778 0d5e 880F      		lsl r24
 2779 0d60 991F      		rol r25
 2780 0d62 E80F      		add r30,r24
 2781 0d64 F91F      		adc r31,r25
 2782 0d66 E00F      		add r30,r16
 2783 0d68 F11F      		adc r31,r17
 2784 0d6a EE0F      		lsl r30
 2785 0d6c FF1F      		rol r31
 2786 0d6e E40F      		add r30,r20
 2787 0d70 F51F      		adc r31,r21
 2788 0d72 8081      		ld r24,Z
 2789 0d74 9181      		ldd r25,Z+1
 2790 0d76 8D93      		st X+,r24
 2791 0d78 9C93      		st X,r25
 2792               	.LM394:
 2793 0d7a C901      		movw r24,r18
 2794 0d7c 9C01      		movw r18,r24
 2795 0d7e A3E0      		ldi r26,3
 2796 0d80 220F      	1:	lsl r18
 2797 0d82 331F      		rol r19
 2798 0d84 AA95      		dec r26
 2799 0d86 01F4      		brne 1b
 2800 0d88 880F      		lsl r24
 2801 0d8a 991F      		rol r25
 2802 0d8c 280F      		add r18,r24
 2803 0d8e 391F      		adc r19,r25
 2804 0d90 200F      		add r18,r16
 2805 0d92 311F      		adc r19,r17
 2806 0d94 220F      		lsl r18
 2807 0d96 331F      		rol r19
 2808 0d98 420F      		add r20,r18
 2809 0d9a 531F      		adc r21,r19
 2810 0d9c FA01      		movw r30,r20
 2811 0d9e 1182      		std Z+1,__zero_reg__
 2812 0da0 1082      		st Z,__zero_reg__
 2813               	.LM395:
 2814 0da2 7093 0000 		sts (rankw8)+1,r23
 2815 0da6 6093 0000 		sts rankw8,r22
 2816 0daa 0C94 0000 		jmp .L192
 2817               	.L200:
 2818               	.LM396:
 2819 0dae 0617      		cp r16,r22
 2820 0db0 1707      		cpc r17,r23
 2821 0db2 01F0      		breq .+4
 2822 0db4 0C94 0000 		jmp .L192
 2823               	.LM397:
 2824 0db8 3093 0000 		sts (x2)+1,r19
 2825 0dbc 2093 0000 		sts x2,r18
 2826 0dc0 9093 0000 		sts (x1)+1,r25
 2827 0dc4 8093 0000 		sts x1,r24
 2828               	.LM398:
 2829 0dc8 1093 0000 		sts (y2)+1,r17
 2830 0dcc 0093 0000 		sts y2,r16
 2831 0dd0 1093 0000 		sts (y1)+1,r17
 2832 0dd4 0093 0000 		sts y1,r16
 2833               	.LM399:
 2834 0dd8 6091 0000 		lds r22,file
 2835 0ddc 7091 0000 		lds r23,file+1
 2836 0de0 2091 0000 		lds r18,filew8
 2837 0de4 3091 0000 		lds r19,filew8+1
 2838 0de8 CB01      		movw r24,r22
 2839 0dea DC01      		movw r26,r24
 2840 0dec 53E0      		ldi r21,3
 2841 0dee AA0F      	1:	lsl r26
 2842 0df0 BB1F      		rol r27
 2843 0df2 5A95      		dec r21
 2844 0df4 01F4      		brne 1b
 2845 0df6 880F      		lsl r24
 2846 0df8 991F      		rol r25
 2847 0dfa A80F      		add r26,r24
 2848 0dfc B91F      		adc r27,r25
 2849 0dfe A00F      		add r26,r16
 2850 0e00 B11F      		adc r27,r17
 2851 0e02 AA0F      		lsl r26
 2852 0e04 BB1F      		rol r27
 2853 0e06 AE01      		movw r20,r28
 2854 0e08 4F5F      		subi r20,lo8(-(1))
 2855 0e0a 5F4F      		sbci r21,hi8(-(1))
 2856 0e0c A40F      		add r26,r20
 2857 0e0e B51F      		adc r27,r21
 2858 0e10 C901      		movw r24,r18
 2859 0e12 FC01      		movw r30,r24
 2860 0e14 EE0F      		lsl r30
 2861 0e16 FF1F      		rol r31
 2862 0e18 EE0F      		lsl r30
 2863 0e1a FF1F      		rol r31
 2864 0e1c EE0F      		lsl r30
 2865 0e1e FF1F      		rol r31
 2866 0e20 880F      		lsl r24
 2867 0e22 991F      		rol r25
 2868 0e24 E80F      		add r30,r24
 2869 0e26 F91F      		adc r31,r25
 2870 0e28 E00F      		add r30,r16
 2871 0e2a F11F      		adc r31,r17
 2872 0e2c EE0F      		lsl r30
 2873 0e2e FF1F      		rol r31
 2874 0e30 E40F      		add r30,r20
 2875 0e32 F51F      		adc r31,r21
 2876 0e34 8081      		ld r24,Z
 2877 0e36 9181      		ldd r25,Z+1
 2878 0e38 8D93      		st X+,r24
 2879 0e3a 9C93      		st X,r25
 2880               	.LM400:
 2881 0e3c C901      		movw r24,r18
 2882 0e3e 9C01      		movw r18,r24
 2883 0e40 A3E0      		ldi r26,3
 2884 0e42 220F      	1:	lsl r18
 2885 0e44 331F      		rol r19
 2886 0e46 AA95      		dec r26
 2887 0e48 01F4      		brne 1b
 2888 0e4a 880F      		lsl r24
 2889 0e4c 991F      		rol r25
 2890 0e4e 280F      		add r18,r24
 2891 0e50 391F      		adc r19,r25
 2892 0e52 200F      		add r18,r16
 2893 0e54 311F      		adc r19,r17
 2894 0e56 220F      		lsl r18
 2895 0e58 331F      		rol r19
 2896 0e5a 420F      		add r20,r18
 2897 0e5c 531F      		adc r21,r19
 2898 0e5e FA01      		movw r30,r20
 2899 0e60 1182      		std Z+1,__zero_reg__
 2900 0e62 1082      		st Z,__zero_reg__
 2901               	.LM401:
 2902 0e64 6093 0000 		sts filew8,r22
 2903 0e68 7093 0000 		sts filew8+1,r23
 2904 0e6c 0C94 0000 		jmp .L192
 2905               	.L197:
 2906               	.LM402:
 2907 0e70 62E0      		ldi r22,lo8(2)
 2908 0e72 70E0      		ldi r23,hi8(2)
 2909 0e74 0E94 0000 		call __divmodhi4
 2910 0e78 0197      		sbiw r24,1
 2911 0e7a 01F0      		breq .+4
 2912 0e7c 0C94 0000 		jmp .L192
 2913               	.LM403:
 2914 0e80 8091 0000 		lds r24,fileb1
 2915 0e84 9091 0000 		lds r25,(fileb1)+1
 2916 0e88 2091 0000 		lds r18,file
 2917 0e8c 3091 0000 		lds r19,(file)+1
 2918 0e90 6091 0000 		lds r22,rank
 2919 0e94 7091 0000 		lds r23,(rank)+1
 2920 0e98 0091 0000 		lds r16,rankb1
 2921 0e9c 1091 0000 		lds r17,(rankb1)+1
 2922 0ea0 8217      		cp r24,r18
 2923 0ea2 9307      		cpc r25,r19
 2924 0ea4 01F0      		breq .+2
 2925 0ea6 00C0      		rjmp .L201
 2926 0ea8 0617      		cp r16,r22
 2927 0eaa 1707      		cpc r17,r23
 2928 0eac 01F4      		brne .+2
 2929 0eae 00C0      		rjmp .L202
 2930               	.LM404:
 2931 0eb0 9093 0000 		sts (x2)+1,r25
 2932 0eb4 8093 0000 		sts x2,r24
 2933 0eb8 9093 0000 		sts (x1)+1,r25
 2934 0ebc 8093 0000 		sts x1,r24
 2935               	.LM405:
 2936 0ec0 7093 0000 		sts (y2)+1,r23
 2937 0ec4 6093 0000 		sts y2,r22
 2938 0ec8 1093 0000 		sts (y1)+1,r17
 2939 0ecc 0093 0000 		sts y1,r16
 2940               	.LM406:
 2941 0ed0 2091 0000 		lds r18,fileb1
 2942 0ed4 3091 0000 		lds r19,fileb1+1
 2943 0ed8 8091 0000 		lds r24,file
 2944 0edc 9091 0000 		lds r25,file+1
 2945 0ee0 DC01      		movw r26,r24
 2946 0ee2 53E0      		ldi r21,3
 2947 0ee4 AA0F      	1:	lsl r26
 2948 0ee6 BB1F      		rol r27
 2949 0ee8 5A95      		dec r21
 2950 0eea 01F4      		brne 1b
 2951 0eec 880F      		lsl r24
 2952 0eee 991F      		rol r25
 2953 0ef0 A80F      		add r26,r24
 2954 0ef2 B91F      		adc r27,r25
 2955 0ef4 A60F      		add r26,r22
 2956 0ef6 B71F      		adc r27,r23
 2957 0ef8 AA0F      		lsl r26
 2958 0efa BB1F      		rol r27
 2959 0efc AE01      		movw r20,r28
 2960 0efe 4F5F      		subi r20,lo8(-(1))
 2961 0f00 5F4F      		sbci r21,hi8(-(1))
 2962 0f02 A40F      		add r26,r20
 2963 0f04 B51F      		adc r27,r21
 2964 0f06 C901      		movw r24,r18
 2965 0f08 FC01      		movw r30,r24
 2966 0f0a EE0F      		lsl r30
 2967 0f0c FF1F      		rol r31
 2968 0f0e EE0F      		lsl r30
 2969 0f10 FF1F      		rol r31
 2970 0f12 EE0F      		lsl r30
 2971 0f14 FF1F      		rol r31
 2972 0f16 880F      		lsl r24
 2973 0f18 991F      		rol r25
 2974 0f1a E80F      		add r30,r24
 2975 0f1c F91F      		adc r31,r25
 2976 0f1e E00F      		add r30,r16
 2977 0f20 F11F      		adc r31,r17
 2978 0f22 EE0F      		lsl r30
 2979 0f24 FF1F      		rol r31
 2980 0f26 E40F      		add r30,r20
 2981 0f28 F51F      		adc r31,r21
 2982 0f2a 8081      		ld r24,Z
 2983 0f2c 9181      		ldd r25,Z+1
 2984 0f2e 8D93      		st X+,r24
 2985 0f30 9C93      		st X,r25
 2986               	.LM407:
 2987 0f32 C901      		movw r24,r18
 2988 0f34 9C01      		movw r18,r24
 2989 0f36 A3E0      		ldi r26,3
 2990 0f38 220F      	1:	lsl r18
 2991 0f3a 331F      		rol r19
 2992 0f3c AA95      		dec r26
 2993 0f3e 01F4      		brne 1b
 2994 0f40 880F      		lsl r24
 2995 0f42 991F      		rol r25
 2996 0f44 280F      		add r18,r24
 2997 0f46 391F      		adc r19,r25
 2998 0f48 200F      		add r18,r16
 2999 0f4a 311F      		adc r19,r17
 3000 0f4c 220F      		lsl r18
 3001 0f4e 331F      		rol r19
 3002 0f50 420F      		add r20,r18
 3003 0f52 531F      		adc r21,r19
 3004 0f54 FA01      		movw r30,r20
 3005 0f56 1182      		std Z+1,__zero_reg__
 3006 0f58 1082      		st Z,__zero_reg__
 3007               	.LM408:
 3008 0f5a 7093 0000 		sts (rankb1)+1,r23
 3009 0f5e 6093 0000 		sts rankb1,r22
 3010 0f62 0C94 0000 		jmp .L192
 3011               	.L201:
 3012               	.LM409:
 3013 0f66 0617      		cp r16,r22
 3014 0f68 1707      		cpc r17,r23
 3015 0f6a 01F0      		breq .+2
 3016 0f6c 00C0      		rjmp .L202
 3017               	.LM410:
 3018 0f6e 3093 0000 		sts (x2)+1,r19
 3019 0f72 2093 0000 		sts x2,r18
 3020 0f76 9093 0000 		sts (x1)+1,r25
 3021 0f7a 8093 0000 		sts x1,r24
 3022               	.LM411:
 3023 0f7e 1093 0000 		sts (y2)+1,r17
 3024 0f82 0093 0000 		sts y2,r16
 3025 0f86 1093 0000 		sts (y1)+1,r17
 3026 0f8a 0093 0000 		sts y1,r16
 3027               	.LM412:
 3028 0f8e 6091 0000 		lds r22,file
 3029 0f92 7091 0000 		lds r23,file+1
 3030 0f96 2091 0000 		lds r18,fileb1
 3031 0f9a 3091 0000 		lds r19,fileb1+1
 3032 0f9e CB01      		movw r24,r22
 3033 0fa0 DC01      		movw r26,r24
 3034 0fa2 53E0      		ldi r21,3
 3035 0fa4 AA0F      	1:	lsl r26
 3036 0fa6 BB1F      		rol r27
 3037 0fa8 5A95      		dec r21
 3038 0faa 01F4      		brne 1b
 3039 0fac 880F      		lsl r24
 3040 0fae 991F      		rol r25
 3041 0fb0 A80F      		add r26,r24
 3042 0fb2 B91F      		adc r27,r25
 3043 0fb4 A00F      		add r26,r16
 3044 0fb6 B11F      		adc r27,r17
 3045 0fb8 AA0F      		lsl r26
 3046 0fba BB1F      		rol r27
 3047 0fbc AE01      		movw r20,r28
 3048 0fbe 4F5F      		subi r20,lo8(-(1))
 3049 0fc0 5F4F      		sbci r21,hi8(-(1))
 3050 0fc2 A40F      		add r26,r20
 3051 0fc4 B51F      		adc r27,r21
 3052 0fc6 C901      		movw r24,r18
 3053 0fc8 FC01      		movw r30,r24
 3054 0fca EE0F      		lsl r30
 3055 0fcc FF1F      		rol r31
 3056 0fce EE0F      		lsl r30
 3057 0fd0 FF1F      		rol r31
 3058 0fd2 EE0F      		lsl r30
 3059 0fd4 FF1F      		rol r31
 3060 0fd6 880F      		lsl r24
 3061 0fd8 991F      		rol r25
 3062 0fda E80F      		add r30,r24
 3063 0fdc F91F      		adc r31,r25
 3064 0fde E00F      		add r30,r16
 3065 0fe0 F11F      		adc r31,r17
 3066 0fe2 EE0F      		lsl r30
 3067 0fe4 FF1F      		rol r31
 3068 0fe6 E40F      		add r30,r20
 3069 0fe8 F51F      		adc r31,r21
 3070 0fea 8081      		ld r24,Z
 3071 0fec 9181      		ldd r25,Z+1
 3072 0fee 8D93      		st X+,r24
 3073 0ff0 9C93      		st X,r25
 3074               	.LM413:
 3075 0ff2 C901      		movw r24,r18
 3076 0ff4 9C01      		movw r18,r24
 3077 0ff6 A3E0      		ldi r26,3
 3078 0ff8 220F      	1:	lsl r18
 3079 0ffa 331F      		rol r19
 3080 0ffc AA95      		dec r26
 3081 0ffe 01F4      		brne 1b
 3082 1000 880F      		lsl r24
 3083 1002 991F      		rol r25
 3084 1004 280F      		add r18,r24
 3085 1006 391F      		adc r19,r25
 3086 1008 200F      		add r18,r16
 3087 100a 311F      		adc r19,r17
 3088 100c 220F      		lsl r18
 3089 100e 331F      		rol r19
 3090 1010 420F      		add r20,r18
 3091 1012 531F      		adc r21,r19
 3092 1014 FA01      		movw r30,r20
 3093 1016 1182      		std Z+1,__zero_reg__
 3094 1018 1082      		st Z,__zero_reg__
 3095               	.LM414:
 3096 101a 6093 0000 		sts fileb1,r22
 3097 101e 7093 0000 		sts fileb1+1,r23
 3098 1022 0C94 0000 		jmp .L192
 3099               	.L202:
 3100               	.LM415:
 3101 1026 8091 0000 		lds r24,fileb8
 3102 102a 9091 0000 		lds r25,(fileb8)+1
 3103 102e 6091 0000 		lds r22,rank
 3104 1032 7091 0000 		lds r23,(rank)+1
 3105 1036 0091 0000 		lds r16,rankb8
 3106 103a 1091 0000 		lds r17,(rankb8)+1
 3107 103e 8217      		cp r24,r18
 3108 1040 9307      		cpc r25,r19
 3109 1042 01F0      		breq .+2
 3110 1044 00C0      		rjmp .L203
 3111 1046 0617      		cp r16,r22
 3112 1048 1707      		cpc r17,r23
 3113 104a 01F4      		brne .+4
 3114 104c 0C94 0000 		jmp .L192
 3115               	.LM416:
 3116 1050 3093 0000 		sts (x2)+1,r19
 3117 1054 2093 0000 		sts x2,r18
 3118 1058 3093 0000 		sts (x1)+1,r19
 3119 105c 2093 0000 		sts x1,r18
 3120               	.LM417:
 3121 1060 7093 0000 		sts (y2)+1,r23
 3122 1064 6093 0000 		sts y2,r22
 3123 1068 1093 0000 		sts (y1)+1,r17
 3124 106c 0093 0000 		sts y1,r16
 3125               	.LM418:
 3126 1070 2091 0000 		lds r18,fileb8
 3127 1074 3091 0000 		lds r19,fileb8+1
 3128 1078 8091 0000 		lds r24,file
 3129 107c 9091 0000 		lds r25,file+1
 3130 1080 DC01      		movw r26,r24
 3131 1082 53E0      		ldi r21,3
 3132 1084 AA0F      	1:	lsl r26
 3133 1086 BB1F      		rol r27
 3134 1088 5A95      		dec r21
 3135 108a 01F4      		brne 1b
 3136 108c 880F      		lsl r24
 3137 108e 991F      		rol r25
 3138 1090 A80F      		add r26,r24
 3139 1092 B91F      		adc r27,r25
 3140 1094 A60F      		add r26,r22
 3141 1096 B71F      		adc r27,r23
 3142 1098 AA0F      		lsl r26
 3143 109a BB1F      		rol r27
 3144 109c AE01      		movw r20,r28
 3145 109e 4F5F      		subi r20,lo8(-(1))
 3146 10a0 5F4F      		sbci r21,hi8(-(1))
 3147 10a2 A40F      		add r26,r20
 3148 10a4 B51F      		adc r27,r21
 3149 10a6 C901      		movw r24,r18
 3150 10a8 FC01      		movw r30,r24
 3151 10aa EE0F      		lsl r30
 3152 10ac FF1F      		rol r31
 3153 10ae EE0F      		lsl r30
 3154 10b0 FF1F      		rol r31
 3155 10b2 EE0F      		lsl r30
 3156 10b4 FF1F      		rol r31
 3157 10b6 880F      		lsl r24
 3158 10b8 991F      		rol r25
 3159 10ba E80F      		add r30,r24
 3160 10bc F91F      		adc r31,r25
 3161 10be E00F      		add r30,r16
 3162 10c0 F11F      		adc r31,r17
 3163 10c2 EE0F      		lsl r30
 3164 10c4 FF1F      		rol r31
 3165 10c6 E40F      		add r30,r20
 3166 10c8 F51F      		adc r31,r21
 3167 10ca 8081      		ld r24,Z
 3168 10cc 9181      		ldd r25,Z+1
 3169 10ce 8D93      		st X+,r24
 3170 10d0 9C93      		st X,r25
 3171               	.LM419:
 3172 10d2 C901      		movw r24,r18
 3173 10d4 9C01      		movw r18,r24
 3174 10d6 A3E0      		ldi r26,3
 3175 10d8 220F      	1:	lsl r18
 3176 10da 331F      		rol r19
 3177 10dc AA95      		dec r26
 3178 10de 01F4      		brne 1b
 3179 10e0 880F      		lsl r24
 3180 10e2 991F      		rol r25
 3181 10e4 280F      		add r18,r24
 3182 10e6 391F      		adc r19,r25
 3183 10e8 200F      		add r18,r16
 3184 10ea 311F      		adc r19,r17
 3185 10ec 220F      		lsl r18
 3186 10ee 331F      		rol r19
 3187 10f0 420F      		add r20,r18
 3188 10f2 531F      		adc r21,r19
 3189 10f4 FA01      		movw r30,r20
 3190 10f6 1182      		std Z+1,__zero_reg__
 3191 10f8 1082      		st Z,__zero_reg__
 3192               	.LM420:
 3193 10fa 7093 0000 		sts (rankb8)+1,r23
 3194 10fe 6093 0000 		sts rankb8,r22
 3195 1102 0C94 0000 		jmp .L192
 3196               	.L203:
 3197               	.LM421:
 3198 1106 0617      		cp r16,r22
 3199 1108 1707      		cpc r17,r23
 3200 110a 01F0      		breq .+4
 3201 110c 0C94 0000 		jmp .L192
 3202               	.LM422:
 3203 1110 3093 0000 		sts (x2)+1,r19
 3204 1114 2093 0000 		sts x2,r18
 3205 1118 9093 0000 		sts (x1)+1,r25
 3206 111c 8093 0000 		sts x1,r24
 3207               	.LM423:
 3208 1120 1093 0000 		sts (y2)+1,r17
 3209 1124 0093 0000 		sts y2,r16
 3210 1128 1093 0000 		sts (y1)+1,r17
 3211 112c 0093 0000 		sts y1,r16
 3212               	.LM424:
 3213 1130 6091 0000 		lds r22,file
 3214 1134 7091 0000 		lds r23,file+1
 3215 1138 2091 0000 		lds r18,fileb8
 3216 113c 3091 0000 		lds r19,fileb8+1
 3217 1140 CB01      		movw r24,r22
 3218 1142 DC01      		movw r26,r24
 3219 1144 53E0      		ldi r21,3
 3220 1146 AA0F      	1:	lsl r26
 3221 1148 BB1F      		rol r27
 3222 114a 5A95      		dec r21
 3223 114c 01F4      		brne 1b
 3224 114e 880F      		lsl r24
 3225 1150 991F      		rol r25
 3226 1152 A80F      		add r26,r24
 3227 1154 B91F      		adc r27,r25
 3228 1156 A00F      		add r26,r16
 3229 1158 B11F      		adc r27,r17
 3230 115a AA0F      		lsl r26
 3231 115c BB1F      		rol r27
 3232 115e AE01      		movw r20,r28
 3233 1160 4F5F      		subi r20,lo8(-(1))
 3234 1162 5F4F      		sbci r21,hi8(-(1))
 3235 1164 A40F      		add r26,r20
 3236 1166 B51F      		adc r27,r21
 3237 1168 C901      		movw r24,r18
 3238 116a FC01      		movw r30,r24
 3239 116c EE0F      		lsl r30
 3240 116e FF1F      		rol r31
 3241 1170 EE0F      		lsl r30
 3242 1172 FF1F      		rol r31
 3243 1174 EE0F      		lsl r30
 3244 1176 FF1F      		rol r31
 3245 1178 880F      		lsl r24
 3246 117a 991F      		rol r25
 3247 117c E80F      		add r30,r24
 3248 117e F91F      		adc r31,r25
 3249 1180 E00F      		add r30,r16
 3250 1182 F11F      		adc r31,r17
 3251 1184 EE0F      		lsl r30
 3252 1186 FF1F      		rol r31
 3253 1188 E40F      		add r30,r20
 3254 118a F51F      		adc r31,r21
 3255 118c 8081      		ld r24,Z
 3256 118e 9181      		ldd r25,Z+1
 3257 1190 8D93      		st X+,r24
 3258 1192 9C93      		st X,r25
 3259               	.LM425:
 3260 1194 C901      		movw r24,r18
 3261 1196 9C01      		movw r18,r24
 3262 1198 A3E0      		ldi r26,3
 3263 119a 220F      	1:	lsl r18
 3264 119c 331F      		rol r19
 3265 119e AA95      		dec r26
 3266 11a0 01F4      		brne 1b
 3267 11a2 880F      		lsl r24
 3268 11a4 991F      		rol r25
 3269 11a6 280F      		add r18,r24
 3270 11a8 391F      		adc r19,r25
 3271 11aa 200F      		add r18,r16
 3272 11ac 311F      		adc r19,r17
 3273 11ae 220F      		lsl r18
 3274 11b0 331F      		rol r19
 3275 11b2 420F      		add r20,r18
 3276 11b4 531F      		adc r21,r19
 3277 11b6 FA01      		movw r30,r20
 3278 11b8 1182      		std Z+1,__zero_reg__
 3279 11ba 1082      		st Z,__zero_reg__
 3280               	.LM426:
 3281 11bc 6093 0000 		sts fileb8,r22
 3282 11c0 7093 0000 		sts fileb8+1,r23
 3283 11c4 0C94 0000 		jmp .L192
 3284               	.L195:
 3285               	.LM427:
 3286 11c8 8130      		cpi r24,1
 3287 11ca 9105      		cpc r25,__zero_reg__
 3288 11cc 01F0      		breq .+2
 3289 11ce 00C0      		rjmp .L204
 3290               	.L205:
 3291               	.LM428:
 3292 11d0 81E0      		ldi r24,lo8(1)
 3293 11d2 90E0      		ldi r25,hi8(1)
 3294 11d4 9093 0000 		sts (bishop)+1,r25
 3295 11d8 8093 0000 		sts bishop,r24
 3296               	.LM429:
 3297 11dc 0E94 0000 		call check_color
 3298               	.LM430:
 3299 11e0 8091 0000 		lds r24,moves
 3300 11e4 9091 0000 		lds r25,moves+1
 3301 11e8 80FD      		sbrc r24,0
 3302 11ea 00C0      		rjmp .L206
 3303               	.LM431:
 3304 11ec 2091 0000 		lds r18,color
 3305 11f0 3091 0000 		lds r19,(color)+1
 3306 11f4 8091 0000 		lds r24,bc1_color
 3307 11f8 9091 0000 		lds r25,(bc1_color)+1
 3308 11fc 2817      		cp r18,r24
 3309 11fe 3907      		cpc r19,r25
 3310 1200 01F0      		breq .+2
 3311 1202 00C0      		rjmp .L207
 3312               	.LM432:
 3313 1204 0091 0000 		lds r16,rank
 3314 1208 1091 0000 		lds r17,(rank)+1
 3315 120c 1093 0000 		sts (x2)+1,r17
 3316 1210 0093 0000 		sts x2,r16
 3317 1214 6091 0000 		lds r22,rankw3
 3318 1218 7091 0000 		lds r23,(rankw3)+1
 3319 121c 7093 0000 		sts (x1)+1,r23
 3320 1220 6093 0000 		sts x1,r22
 3321               	.LM433:
 3322 1224 8091 0000 		lds r24,file
 3323 1228 9091 0000 		lds r25,(file)+1
 3324 122c 9093 0000 		sts (y2)+1,r25
 3325 1230 8093 0000 		sts y2,r24
 3326 1234 8091 0000 		lds r24,filew3
 3327 1238 9091 0000 		lds r25,(filew3)+1
 3328 123c 9093 0000 		sts (y1)+1,r25
 3329 1240 8093 0000 		sts y1,r24
 3330               	.LM434:
 3331 1244 F090 0000 		lds r15,file
 3332 1248 E090 0000 		lds r14,file+1
 3333 124c 2091 0000 		lds r18,filew3
 3334 1250 3091 0000 		lds r19,filew3+1
 3335 1254 8F2D      		mov r24,r15
 3336 1256 9E2D      		mov r25,r14
 3337 1258 DC01      		movw r26,r24
 3338 125a 53E0      		ldi r21,3
 3339 125c AA0F      	1:	lsl r26
 3340 125e BB1F      		rol r27
 3341 1260 5A95      		dec r21
 3342 1262 01F4      		brne 1b
 3343 1264 880F      		lsl r24
 3344 1266 991F      		rol r25
 3345 1268 A80F      		add r26,r24
 3346 126a B91F      		adc r27,r25
 3347 126c A00F      		add r26,r16
 3348 126e B11F      		adc r27,r17
 3349 1270 AA0F      		lsl r26
 3350 1272 BB1F      		rol r27
 3351 1274 AE01      		movw r20,r28
 3352 1276 4F5F      		subi r20,lo8(-(1))
 3353 1278 5F4F      		sbci r21,hi8(-(1))
 3354 127a A40F      		add r26,r20
 3355 127c B51F      		adc r27,r21
 3356 127e C901      		movw r24,r18
 3357 1280 FC01      		movw r30,r24
 3358 1282 EE0F      		lsl r30
 3359 1284 FF1F      		rol r31
 3360 1286 EE0F      		lsl r30
 3361 1288 FF1F      		rol r31
 3362 128a EE0F      		lsl r30
 3363 128c FF1F      		rol r31
 3364 128e 880F      		lsl r24
 3365 1290 991F      		rol r25
 3366 1292 E80F      		add r30,r24
 3367 1294 F91F      		adc r31,r25
 3368 1296 E60F      		add r30,r22
 3369 1298 F71F      		adc r31,r23
 3370 129a EE0F      		lsl r30
 3371 129c FF1F      		rol r31
 3372 129e E40F      		add r30,r20
 3373 12a0 F51F      		adc r31,r21
 3374 12a2 8081      		ld r24,Z
 3375 12a4 9181      		ldd r25,Z+1
 3376 12a6 8D93      		st X+,r24
 3377 12a8 9C93      		st X,r25
 3378               	.LM435:
 3379 12aa C901      		movw r24,r18
 3380 12ac 9C01      		movw r18,r24
 3381 12ae F3E0      		ldi r31,3
 3382 12b0 220F      	1:	lsl r18
 3383 12b2 331F      		rol r19
 3384 12b4 FA95      		dec r31
 3385 12b6 01F4      		brne 1b
 3386 12b8 880F      		lsl r24
 3387 12ba 991F      		rol r25
 3388 12bc 280F      		add r18,r24
 3389 12be 391F      		adc r19,r25
 3390 12c0 260F      		add r18,r22
 3391 12c2 371F      		adc r19,r23
 3392 12c4 220F      		lsl r18
 3393 12c6 331F      		rol r19
 3394 12c8 420F      		add r20,r18
 3395 12ca 531F      		adc r21,r19
 3396 12cc FA01      		movw r30,r20
 3397 12ce 1182      		std Z+1,__zero_reg__
 3398 12d0 1082      		st Z,__zero_reg__
 3399               	.LM436:
 3400 12d2 F092 0000 		sts filew3,r15
 3401 12d6 E092 0000 		sts filew3+1,r14
 3402 12da 1093 0000 		sts (rankw3)+1,r17
 3403 12de 0093 0000 		sts rankw3,r16
 3404 12e2 0C94 0000 		jmp .L192
 3405               	.L207:
 3406               	.LM437:
 3407 12e6 8091 0000 		lds r24,bf1_color
 3408 12ea 9091 0000 		lds r25,(bf1_color)+1
 3409 12ee 2817      		cp r18,r24
 3410 12f0 3907      		cpc r19,r25
 3411 12f2 01F0      		breq .+4
 3412 12f4 0C94 0000 		jmp .L192
 3413               	.LM438:
 3414 12f8 0091 0000 		lds r16,rank
 3415 12fc 1091 0000 		lds r17,(rank)+1
 3416 1300 1093 0000 		sts (x2)+1,r17
 3417 1304 0093 0000 		sts x2,r16
 3418 1308 6091 0000 		lds r22,rankw6
 3419 130c 7091 0000 		lds r23,(rankw6)+1
 3420 1310 7093 0000 		sts (x1)+1,r23
 3421 1314 6093 0000 		sts x1,r22
 3422               	.LM439:
 3423 1318 8091 0000 		lds r24,file
 3424 131c 9091 0000 		lds r25,(file)+1
 3425 1320 9093 0000 		sts (y2)+1,r25
 3426 1324 8093 0000 		sts y2,r24
 3427 1328 8091 0000 		lds r24,filew6
 3428 132c 9091 0000 		lds r25,(filew6)+1
 3429 1330 9093 0000 		sts (y1)+1,r25
 3430 1334 8093 0000 		sts y1,r24
 3431               	.LM440:
 3432 1338 F090 0000 		lds r15,file
 3433 133c E090 0000 		lds r14,file+1
 3434 1340 2091 0000 		lds r18,filew6
 3435 1344 3091 0000 		lds r19,filew6+1
 3436 1348 8F2D      		mov r24,r15
 3437 134a 9E2D      		mov r25,r14
 3438 134c DC01      		movw r26,r24
 3439 134e 53E0      		ldi r21,3
 3440 1350 AA0F      	1:	lsl r26
 3441 1352 BB1F      		rol r27
 3442 1354 5A95      		dec r21
 3443 1356 01F4      		brne 1b
 3444 1358 880F      		lsl r24
 3445 135a 991F      		rol r25
 3446 135c A80F      		add r26,r24
 3447 135e B91F      		adc r27,r25
 3448 1360 A00F      		add r26,r16
 3449 1362 B11F      		adc r27,r17
 3450 1364 AA0F      		lsl r26
 3451 1366 BB1F      		rol r27
 3452 1368 AE01      		movw r20,r28
 3453 136a 4F5F      		subi r20,lo8(-(1))
 3454 136c 5F4F      		sbci r21,hi8(-(1))
 3455 136e A40F      		add r26,r20
 3456 1370 B51F      		adc r27,r21
 3457 1372 C901      		movw r24,r18
 3458 1374 FC01      		movw r30,r24
 3459 1376 EE0F      		lsl r30
 3460 1378 FF1F      		rol r31
 3461 137a EE0F      		lsl r30
 3462 137c FF1F      		rol r31
 3463 137e EE0F      		lsl r30
 3464 1380 FF1F      		rol r31
 3465 1382 880F      		lsl r24
 3466 1384 991F      		rol r25
 3467 1386 E80F      		add r30,r24
 3468 1388 F91F      		adc r31,r25
 3469 138a E60F      		add r30,r22
 3470 138c F71F      		adc r31,r23
 3471 138e EE0F      		lsl r30
 3472 1390 FF1F      		rol r31
 3473 1392 E40F      		add r30,r20
 3474 1394 F51F      		adc r31,r21
 3475 1396 8081      		ld r24,Z
 3476 1398 9181      		ldd r25,Z+1
 3477 139a 8D93      		st X+,r24
 3478 139c 9C93      		st X,r25
 3479               	.LM441:
 3480 139e C901      		movw r24,r18
 3481 13a0 9C01      		movw r18,r24
 3482 13a2 F3E0      		ldi r31,3
 3483 13a4 220F      	1:	lsl r18
 3484 13a6 331F      		rol r19
 3485 13a8 FA95      		dec r31
 3486 13aa 01F4      		brne 1b
 3487 13ac 880F      		lsl r24
 3488 13ae 991F      		rol r25
 3489 13b0 280F      		add r18,r24
 3490 13b2 391F      		adc r19,r25
 3491 13b4 260F      		add r18,r22
 3492 13b6 371F      		adc r19,r23
 3493 13b8 220F      		lsl r18
 3494 13ba 331F      		rol r19
 3495 13bc 420F      		add r20,r18
 3496 13be 531F      		adc r21,r19
 3497 13c0 FA01      		movw r30,r20
 3498 13c2 1182      		std Z+1,__zero_reg__
 3499 13c4 1082      		st Z,__zero_reg__
 3500               	.LM442:
 3501 13c6 F092 0000 		sts filew6,r15
 3502 13ca E092 0000 		sts filew6+1,r14
 3503 13ce 1093 0000 		sts (rankw6)+1,r17
 3504 13d2 0093 0000 		sts rankw6,r16
 3505 13d6 0C94 0000 		jmp .L192
 3506               	.L206:
 3507               	.LM443:
 3508 13da 62E0      		ldi r22,lo8(2)
 3509 13dc 70E0      		ldi r23,hi8(2)
 3510 13de 0E94 0000 		call __divmodhi4
 3511 13e2 0197      		sbiw r24,1
 3512 13e4 01F0      		breq .+4
 3513 13e6 0C94 0000 		jmp .L192
 3514               	.LM444:
 3515 13ea 2091 0000 		lds r18,color
 3516 13ee 3091 0000 		lds r19,(color)+1
 3517 13f2 8091 0000 		lds r24,bc8_color
 3518 13f6 9091 0000 		lds r25,(bc8_color)+1
 3519 13fa 2817      		cp r18,r24
 3520 13fc 3907      		cpc r19,r25
 3521 13fe 01F0      		breq .+2
 3522 1400 00C0      		rjmp .L208
 3523               	.LM445:
 3524 1402 0091 0000 		lds r16,rank
 3525 1406 1091 0000 		lds r17,(rank)+1
 3526 140a 1093 0000 		sts (x2)+1,r17
 3527 140e 0093 0000 		sts x2,r16
 3528 1412 6091 0000 		lds r22,rankb3
 3529 1416 7091 0000 		lds r23,(rankb3)+1
 3530 141a 7093 0000 		sts (x1)+1,r23
 3531 141e 6093 0000 		sts x1,r22
 3532               	.LM446:
 3533 1422 8091 0000 		lds r24,file
 3534 1426 9091 0000 		lds r25,(file)+1
 3535 142a 9093 0000 		sts (y2)+1,r25
 3536 142e 8093 0000 		sts y2,r24
 3537 1432 8091 0000 		lds r24,fileb3
 3538 1436 9091 0000 		lds r25,(fileb3)+1
 3539 143a 9093 0000 		sts (y1)+1,r25
 3540 143e 8093 0000 		sts y1,r24
 3541               	.LM447:
 3542 1442 F090 0000 		lds r15,file
 3543 1446 E090 0000 		lds r14,file+1
 3544 144a 2091 0000 		lds r18,fileb3
 3545 144e 3091 0000 		lds r19,fileb3+1
 3546 1452 8F2D      		mov r24,r15
 3547 1454 9E2D      		mov r25,r14
 3548 1456 DC01      		movw r26,r24
 3549 1458 53E0      		ldi r21,3
 3550 145a AA0F      	1:	lsl r26
 3551 145c BB1F      		rol r27
 3552 145e 5A95      		dec r21
 3553 1460 01F4      		brne 1b
 3554 1462 880F      		lsl r24
 3555 1464 991F      		rol r25
 3556 1466 A80F      		add r26,r24
 3557 1468 B91F      		adc r27,r25
 3558 146a A00F      		add r26,r16
 3559 146c B11F      		adc r27,r17
 3560 146e AA0F      		lsl r26
 3561 1470 BB1F      		rol r27
 3562 1472 AE01      		movw r20,r28
 3563 1474 4F5F      		subi r20,lo8(-(1))
 3564 1476 5F4F      		sbci r21,hi8(-(1))
 3565 1478 A40F      		add r26,r20
 3566 147a B51F      		adc r27,r21
 3567 147c C901      		movw r24,r18
 3568 147e FC01      		movw r30,r24
 3569 1480 EE0F      		lsl r30
 3570 1482 FF1F      		rol r31
 3571 1484 EE0F      		lsl r30
 3572 1486 FF1F      		rol r31
 3573 1488 EE0F      		lsl r30
 3574 148a FF1F      		rol r31
 3575 148c 880F      		lsl r24
 3576 148e 991F      		rol r25
 3577 1490 E80F      		add r30,r24
 3578 1492 F91F      		adc r31,r25
 3579 1494 E60F      		add r30,r22
 3580 1496 F71F      		adc r31,r23
 3581 1498 EE0F      		lsl r30
 3582 149a FF1F      		rol r31
 3583 149c E40F      		add r30,r20
 3584 149e F51F      		adc r31,r21
 3585 14a0 8081      		ld r24,Z
 3586 14a2 9181      		ldd r25,Z+1
 3587 14a4 8D93      		st X+,r24
 3588 14a6 9C93      		st X,r25
 3589               	.LM448:
 3590 14a8 C901      		movw r24,r18
 3591 14aa 9C01      		movw r18,r24
 3592 14ac F3E0      		ldi r31,3
 3593 14ae 220F      	1:	lsl r18
 3594 14b0 331F      		rol r19
 3595 14b2 FA95      		dec r31
 3596 14b4 01F4      		brne 1b
 3597 14b6 880F      		lsl r24
 3598 14b8 991F      		rol r25
 3599 14ba 280F      		add r18,r24
 3600 14bc 391F      		adc r19,r25
 3601 14be 260F      		add r18,r22
 3602 14c0 371F      		adc r19,r23
 3603 14c2 220F      		lsl r18
 3604 14c4 331F      		rol r19
 3605 14c6 420F      		add r20,r18
 3606 14c8 531F      		adc r21,r19
 3607 14ca FA01      		movw r30,r20
 3608 14cc 1182      		std Z+1,__zero_reg__
 3609 14ce 1082      		st Z,__zero_reg__
 3610               	.LM449:
 3611 14d0 F092 0000 		sts fileb3,r15
 3612 14d4 E092 0000 		sts fileb3+1,r14
 3613 14d8 1093 0000 		sts (rankb3)+1,r17
 3614 14dc 0093 0000 		sts rankb3,r16
 3615 14e0 0C94 0000 		jmp .L192
 3616               	.L208:
 3617               	.LM450:
 3618 14e4 8091 0000 		lds r24,bf8_color
 3619 14e8 9091 0000 		lds r25,(bf8_color)+1
 3620 14ec 2817      		cp r18,r24
 3621 14ee 3907      		cpc r19,r25
 3622 14f0 01F0      		breq .+4
 3623 14f2 0C94 0000 		jmp .L192
 3624               	.LM451:
 3625 14f6 0091 0000 		lds r16,rank
 3626 14fa 1091 0000 		lds r17,(rank)+1
 3627 14fe 1093 0000 		sts (x2)+1,r17
 3628 1502 0093 0000 		sts x2,r16
 3629 1506 6091 0000 		lds r22,rankb6
 3630 150a 7091 0000 		lds r23,(rankb6)+1
 3631 150e 7093 0000 		sts (x1)+1,r23
 3632 1512 6093 0000 		sts x1,r22
 3633               	.LM452:
 3634 1516 8091 0000 		lds r24,file
 3635 151a 9091 0000 		lds r25,(file)+1
 3636 151e 9093 0000 		sts (y2)+1,r25
 3637 1522 8093 0000 		sts y2,r24
 3638 1526 8091 0000 		lds r24,fileb6
 3639 152a 9091 0000 		lds r25,(fileb6)+1
 3640 152e 9093 0000 		sts (y1)+1,r25
 3641 1532 8093 0000 		sts y1,r24
 3642               	.LM453:
 3643 1536 F090 0000 		lds r15,file
 3644 153a E090 0000 		lds r14,file+1
 3645 153e 2091 0000 		lds r18,fileb6
 3646 1542 3091 0000 		lds r19,fileb6+1
 3647 1546 8F2D      		mov r24,r15
 3648 1548 9E2D      		mov r25,r14
 3649 154a DC01      		movw r26,r24
 3650 154c 53E0      		ldi r21,3
 3651 154e AA0F      	1:	lsl r26
 3652 1550 BB1F      		rol r27
 3653 1552 5A95      		dec r21
 3654 1554 01F4      		brne 1b
 3655 1556 880F      		lsl r24
 3656 1558 991F      		rol r25
 3657 155a A80F      		add r26,r24
 3658 155c B91F      		adc r27,r25
 3659 155e A00F      		add r26,r16
 3660 1560 B11F      		adc r27,r17
 3661 1562 AA0F      		lsl r26
 3662 1564 BB1F      		rol r27
 3663 1566 AE01      		movw r20,r28
 3664 1568 4F5F      		subi r20,lo8(-(1))
 3665 156a 5F4F      		sbci r21,hi8(-(1))
 3666 156c A40F      		add r26,r20
 3667 156e B51F      		adc r27,r21
 3668 1570 C901      		movw r24,r18
 3669 1572 FC01      		movw r30,r24
 3670 1574 EE0F      		lsl r30
 3671 1576 FF1F      		rol r31
 3672 1578 EE0F      		lsl r30
 3673 157a FF1F      		rol r31
 3674 157c EE0F      		lsl r30
 3675 157e FF1F      		rol r31
 3676 1580 880F      		lsl r24
 3677 1582 991F      		rol r25
 3678 1584 E80F      		add r30,r24
 3679 1586 F91F      		adc r31,r25
 3680 1588 E60F      		add r30,r22
 3681 158a F71F      		adc r31,r23
 3682 158c EE0F      		lsl r30
 3683 158e FF1F      		rol r31
 3684 1590 E40F      		add r30,r20
 3685 1592 F51F      		adc r31,r21
 3686 1594 8081      		ld r24,Z
 3687 1596 9181      		ldd r25,Z+1
 3688 1598 8D93      		st X+,r24
 3689 159a 9C93      		st X,r25
 3690               	.LM454:
 3691 159c C901      		movw r24,r18
 3692 159e 9C01      		movw r18,r24
 3693 15a0 F3E0      		ldi r31,3
 3694 15a2 220F      	1:	lsl r18
 3695 15a4 331F      		rol r19
 3696 15a6 FA95      		dec r31
 3697 15a8 01F4      		brne 1b
 3698 15aa 880F      		lsl r24
 3699 15ac 991F      		rol r25
 3700 15ae 280F      		add r18,r24
 3701 15b0 391F      		adc r19,r25
 3702 15b2 260F      		add r18,r22
 3703 15b4 371F      		adc r19,r23
 3704 15b6 220F      		lsl r18
 3705 15b8 331F      		rol r19
 3706 15ba 420F      		add r20,r18
 3707 15bc 531F      		adc r21,r19
 3708 15be FA01      		movw r30,r20
 3709 15c0 1182      		std Z+1,__zero_reg__
 3710 15c2 1082      		st Z,__zero_reg__
 3711               	.LM455:
 3712 15c4 F092 0000 		sts fileb6,r15
 3713 15c8 E092 0000 		sts fileb6+1,r14
 3714 15cc 1093 0000 		sts (rankb6)+1,r17
 3715 15d0 0093 0000 		sts rankb6,r16
 3716 15d4 0C94 0000 		jmp .L192
 3717               	.L204:
 3718               	.LM456:
 3719 15d8 8230      		cpi r24,2
 3720 15da 9105      		cpc r25,__zero_reg__
 3721 15dc 01F0      		breq .+2
 3722 15de 00C0      		rjmp .L209
 3723               	.L210:
 3724               	.LM457:
 3725 15e0 0E94 0000 		call check_color
 3726               	.LM458:
 3727 15e4 8091 0000 		lds r24,moves
 3728 15e8 9091 0000 		lds r25,moves+1
 3729 15ec 80FD      		sbrc r24,0
 3730 15ee 00C0      		rjmp .L211
 3731               	.LM459:
 3732 15f0 2091 0000 		lds r18,color
 3733 15f4 3091 0000 		lds r19,(color)+1
 3734 15f8 8091 0000 		lds r24,ke1_color
 3735 15fc 9091 0000 		lds r25,(ke1_color)+1
 3736 1600 E091 0000 		lds r30,file
 3737 1604 F091 0000 		lds r31,(file)+1
 3738 1608 4091 0000 		lds r20,filew5
 3739 160c 5091 0000 		lds r21,(filew5)+1
 3740 1610 2817      		cp r18,r24
 3741 1612 3907      		cpc r19,r25
 3742 1614 01F4      		brne .+2
 3743 1616 00C0      		rjmp .L212
 3744               	.LM460:
 3745 1618 81E0      		ldi r24,lo8(1)
 3746 161a 90E0      		ldi r25,hi8(1)
 3747 161c 9093 0000 		sts (queen_hrook)+1,r25
 3748 1620 8093 0000 		sts queen_hrook,r24
 3749 1624 6091 0000 		lds r22,rank
 3750 1628 7091 0000 		lds r23,(rank)+1
 3751 162c 0091 0000 		lds r16,rankw5
 3752 1630 1091 0000 		lds r17,(rankw5)+1
 3753               	.LM461:
 3754 1634 4E17      		cp r20,r30
 3755 1636 5F07      		cpc r21,r31
 3756 1638 01F0      		breq .+2
 3757 163a 00C0      		rjmp .L213
 3758 163c 0617      		cp r16,r22
 3759 163e 1707      		cpc r17,r23
 3760 1640 01F4      		brne .+4
 3761 1642 0C94 0000 		jmp .L192
 3762               	.LM462:
 3763 1646 5093 0000 		sts (x2)+1,r21
 3764 164a 4093 0000 		sts x2,r20
 3765 164e 5093 0000 		sts (x1)+1,r21
 3766 1652 4093 0000 		sts x1,r20
 3767               	.LM463:
 3768 1656 7093 0000 		sts (y2)+1,r23
 3769 165a 6093 0000 		sts y2,r22
 3770 165e 1093 0000 		sts (y1)+1,r17
 3771 1662 0093 0000 		sts y1,r16
 3772               	.LM464:
 3773 1666 2091 0000 		lds r18,filew5
 3774 166a 3091 0000 		lds r19,filew5+1
 3775 166e 8091 0000 		lds r24,file
 3776 1672 9091 0000 		lds r25,file+1
 3777 1676 DC01      		movw r26,r24
 3778 1678 53E0      		ldi r21,3
 3779 167a AA0F      	1:	lsl r26
 3780 167c BB1F      		rol r27
 3781 167e 5A95      		dec r21
 3782 1680 01F4      		brne 1b
 3783 1682 880F      		lsl r24
 3784 1684 991F      		rol r25
 3785 1686 A80F      		add r26,r24
 3786 1688 B91F      		adc r27,r25
 3787 168a A60F      		add r26,r22
 3788 168c B71F      		adc r27,r23
 3789 168e AA0F      		lsl r26
 3790 1690 BB1F      		rol r27
 3791 1692 AE01      		movw r20,r28
 3792 1694 4F5F      		subi r20,lo8(-(1))
 3793 1696 5F4F      		sbci r21,hi8(-(1))
 3794 1698 A40F      		add r26,r20
 3795 169a B51F      		adc r27,r21
 3796 169c C901      		movw r24,r18
 3797 169e FC01      		movw r30,r24
 3798 16a0 EE0F      		lsl r30
 3799 16a2 FF1F      		rol r31
 3800 16a4 EE0F      		lsl r30
 3801 16a6 FF1F      		rol r31
 3802 16a8 EE0F      		lsl r30
 3803 16aa FF1F      		rol r31
 3804 16ac 880F      		lsl r24
 3805 16ae 991F      		rol r25
 3806 16b0 E80F      		add r30,r24
 3807 16b2 F91F      		adc r31,r25
 3808 16b4 E00F      		add r30,r16
 3809 16b6 F11F      		adc r31,r17
 3810 16b8 EE0F      		lsl r30
 3811 16ba FF1F      		rol r31
 3812 16bc E40F      		add r30,r20
 3813 16be F51F      		adc r31,r21
 3814 16c0 8081      		ld r24,Z
 3815 16c2 9181      		ldd r25,Z+1
 3816 16c4 8D93      		st X+,r24
 3817 16c6 9C93      		st X,r25
 3818               	.LM465:
 3819 16c8 C901      		movw r24,r18
 3820 16ca 9C01      		movw r18,r24
 3821 16cc A3E0      		ldi r26,3
 3822 16ce 220F      	1:	lsl r18
 3823 16d0 331F      		rol r19
 3824 16d2 AA95      		dec r26
 3825 16d4 01F4      		brne 1b
 3826 16d6 880F      		lsl r24
 3827 16d8 991F      		rol r25
 3828 16da 280F      		add r18,r24
 3829 16dc 391F      		adc r19,r25
 3830 16de 200F      		add r18,r16
 3831 16e0 311F      		adc r19,r17
 3832 16e2 220F      		lsl r18
 3833 16e4 331F      		rol r19
 3834 16e6 420F      		add r20,r18
 3835 16e8 531F      		adc r21,r19
 3836 16ea FA01      		movw r30,r20
 3837 16ec 1182      		std Z+1,__zero_reg__
 3838 16ee 1082      		st Z,__zero_reg__
 3839               	.LM466:
 3840 16f0 7093 0000 		sts (rankw5)+1,r23
 3841 16f4 6093 0000 		sts rankw5,r22
 3842 16f8 0C94 0000 		jmp .L192
 3843               	.L213:
 3844               	.LM467:
 3845 16fc 0617      		cp r16,r22
 3846 16fe 1707      		cpc r17,r23
 3847 1700 01F0      		breq .+4
 3848 1702 0C94 0000 		jmp .L192
 3849               	.LM468:
 3850 1706 F093 0000 		sts (x2)+1,r31
 3851 170a E093 0000 		sts x2,r30
 3852 170e 5093 0000 		sts (x1)+1,r21
 3853 1712 4093 0000 		sts x1,r20
 3854               	.LM469:
 3855 1716 1093 0000 		sts (y2)+1,r17
 3856 171a 0093 0000 		sts y2,r16
 3857 171e 1093 0000 		sts (y1)+1,r17
 3858 1722 0093 0000 		sts y1,r16
 3859               	.LM470:
 3860 1726 6091 0000 		lds r22,file
 3861 172a 7091 0000 		lds r23,file+1
 3862 172e 2091 0000 		lds r18,filew5
 3863 1732 3091 0000 		lds r19,filew5+1
 3864 1736 CB01      		movw r24,r22
 3865 1738 DC01      		movw r26,r24
 3866 173a 53E0      		ldi r21,3
 3867 173c AA0F      	1:	lsl r26
 3868 173e BB1F      		rol r27
 3869 1740 5A95      		dec r21
 3870 1742 01F4      		brne 1b
 3871 1744 880F      		lsl r24
 3872 1746 991F      		rol r25
 3873 1748 A80F      		add r26,r24
 3874 174a B91F      		adc r27,r25
 3875 174c A00F      		add r26,r16
 3876 174e B11F      		adc r27,r17
 3877 1750 AA0F      		lsl r26
 3878 1752 BB1F      		rol r27
 3879 1754 AE01      		movw r20,r28
 3880 1756 4F5F      		subi r20,lo8(-(1))
 3881 1758 5F4F      		sbci r21,hi8(-(1))
 3882 175a A40F      		add r26,r20
 3883 175c B51F      		adc r27,r21
 3884 175e C901      		movw r24,r18
 3885 1760 FC01      		movw r30,r24
 3886 1762 EE0F      		lsl r30
 3887 1764 FF1F      		rol r31
 3888 1766 EE0F      		lsl r30
 3889 1768 FF1F      		rol r31
 3890 176a EE0F      		lsl r30
 3891 176c FF1F      		rol r31
 3892 176e 880F      		lsl r24
 3893 1770 991F      		rol r25
 3894 1772 E80F      		add r30,r24
 3895 1774 F91F      		adc r31,r25
 3896 1776 E00F      		add r30,r16
 3897 1778 F11F      		adc r31,r17
 3898 177a EE0F      		lsl r30
 3899 177c FF1F      		rol r31
 3900 177e E40F      		add r30,r20
 3901 1780 F51F      		adc r31,r21
 3902 1782 8081      		ld r24,Z
 3903 1784 9181      		ldd r25,Z+1
 3904 1786 8D93      		st X+,r24
 3905 1788 9C93      		st X,r25
 3906               	.LM471:
 3907 178a C901      		movw r24,r18
 3908 178c 9C01      		movw r18,r24
 3909 178e A3E0      		ldi r26,3
 3910 1790 220F      	1:	lsl r18
 3911 1792 331F      		rol r19
 3912 1794 AA95      		dec r26
 3913 1796 01F4      		brne 1b
 3914 1798 880F      		lsl r24
 3915 179a 991F      		rol r25
 3916 179c 280F      		add r18,r24
 3917 179e 391F      		adc r19,r25
 3918 17a0 200F      		add r18,r16
 3919 17a2 311F      		adc r19,r17
 3920 17a4 220F      		lsl r18
 3921 17a6 331F      		rol r19
 3922 17a8 420F      		add r20,r18
 3923 17aa 531F      		adc r21,r19
 3924 17ac FA01      		movw r30,r20
 3925 17ae 1182      		std Z+1,__zero_reg__
 3926 17b0 1082      		st Z,__zero_reg__
 3927               	.LM472:
 3928 17b2 6093 0000 		sts filew5,r22
 3929 17b6 7093 0000 		sts filew5+1,r23
 3930 17ba 0C94 0000 		jmp .L192
 3931               	.L212:
 3932               	.LM473:
 3933 17be 81E0      		ldi r24,lo8(1)
 3934 17c0 90E0      		ldi r25,hi8(1)
 3935 17c2 9093 0000 		sts (queen_bishop)+1,r25
 3936 17c6 8093 0000 		sts queen_bishop,r24
 3937               	.LM474:
 3938 17ca 0091 0000 		lds r16,rank
 3939 17ce 1091 0000 		lds r17,(rank)+1
 3940 17d2 1093 0000 		sts (x2)+1,r17
 3941 17d6 0093 0000 		sts x2,r16
 3942 17da 6091 0000 		lds r22,rankw5
 3943 17de 7091 0000 		lds r23,(rankw5)+1
 3944 17e2 7093 0000 		sts (x1)+1,r23
 3945 17e6 6093 0000 		sts x1,r22
 3946               	.LM475:
 3947 17ea F093 0000 		sts (y2)+1,r31
 3948 17ee E093 0000 		sts y2,r30
 3949 17f2 5093 0000 		sts (y1)+1,r21
 3950 17f6 4093 0000 		sts y1,r20
 3951               	.LM476:
 3952 17fa F090 0000 		lds r15,file
 3953 17fe E090 0000 		lds r14,file+1
 3954 1802 2091 0000 		lds r18,filew5
 3955 1806 3091 0000 		lds r19,filew5+1
 3956 180a 8F2D      		mov r24,r15
 3957 180c 9E2D      		mov r25,r14
 3958 180e DC01      		movw r26,r24
 3959 1810 53E0      		ldi r21,3
 3960 1812 AA0F      	1:	lsl r26
 3961 1814 BB1F      		rol r27
 3962 1816 5A95      		dec r21
 3963 1818 01F4      		brne 1b
 3964 181a 880F      		lsl r24
 3965 181c 991F      		rol r25
 3966 181e A80F      		add r26,r24
 3967 1820 B91F      		adc r27,r25
 3968 1822 A00F      		add r26,r16
 3969 1824 B11F      		adc r27,r17
 3970 1826 AA0F      		lsl r26
 3971 1828 BB1F      		rol r27
 3972 182a AE01      		movw r20,r28
 3973 182c 4F5F      		subi r20,lo8(-(1))
 3974 182e 5F4F      		sbci r21,hi8(-(1))
 3975 1830 A40F      		add r26,r20
 3976 1832 B51F      		adc r27,r21
 3977 1834 C901      		movw r24,r18
 3978 1836 FC01      		movw r30,r24
 3979 1838 EE0F      		lsl r30
 3980 183a FF1F      		rol r31
 3981 183c EE0F      		lsl r30
 3982 183e FF1F      		rol r31
 3983 1840 EE0F      		lsl r30
 3984 1842 FF1F      		rol r31
 3985 1844 880F      		lsl r24
 3986 1846 991F      		rol r25
 3987 1848 E80F      		add r30,r24
 3988 184a F91F      		adc r31,r25
 3989 184c E60F      		add r30,r22
 3990 184e F71F      		adc r31,r23
 3991 1850 EE0F      		lsl r30
 3992 1852 FF1F      		rol r31
 3993 1854 E40F      		add r30,r20
 3994 1856 F51F      		adc r31,r21
 3995 1858 8081      		ld r24,Z
 3996 185a 9181      		ldd r25,Z+1
 3997 185c 8D93      		st X+,r24
 3998 185e 9C93      		st X,r25
 3999               	.LM477:
 4000 1860 C901      		movw r24,r18
 4001 1862 9C01      		movw r18,r24
 4002 1864 F3E0      		ldi r31,3
 4003 1866 220F      	1:	lsl r18
 4004 1868 331F      		rol r19
 4005 186a FA95      		dec r31
 4006 186c 01F4      		brne 1b
 4007 186e 880F      		lsl r24
 4008 1870 991F      		rol r25
 4009 1872 280F      		add r18,r24
 4010 1874 391F      		adc r19,r25
 4011 1876 260F      		add r18,r22
 4012 1878 371F      		adc r19,r23
 4013 187a 220F      		lsl r18
 4014 187c 331F      		rol r19
 4015 187e 420F      		add r20,r18
 4016 1880 531F      		adc r21,r19
 4017 1882 FA01      		movw r30,r20
 4018 1884 1182      		std Z+1,__zero_reg__
 4019 1886 1082      		st Z,__zero_reg__
 4020               	.LM478:
 4021 1888 F092 0000 		sts filew5,r15
 4022 188c E092 0000 		sts filew5+1,r14
 4023 1890 1093 0000 		sts (rankw5)+1,r17
 4024 1894 0093 0000 		sts rankw5,r16
 4025 1898 0C94 0000 		jmp .L192
 4026               	.L211:
 4027               	.LM479:
 4028 189c 62E0      		ldi r22,lo8(2)
 4029 189e 70E0      		ldi r23,hi8(2)
 4030 18a0 0E94 0000 		call __divmodhi4
 4031 18a4 AC01      		movw r20,r24
 4032 18a6 8130      		cpi r24,1
 4033 18a8 9105      		cpc r25,__zero_reg__
 4034 18aa 01F0      		breq .+4
 4035 18ac 0C94 0000 		jmp .L192
 4036               	.LM480:
 4037 18b0 2091 0000 		lds r18,color
 4038 18b4 3091 0000 		lds r19,(color)+1
 4039 18b8 8091 0000 		lds r24,ke8_color
 4040 18bc 9091 0000 		lds r25,(ke8_color)+1
 4041 18c0 E091 0000 		lds r30,file
 4042 18c4 F091 0000 		lds r31,(file)+1
 4043 18c8 A091 0000 		lds r26,fileb5
 4044 18cc B091 0000 		lds r27,(fileb5)+1
 4045 18d0 2817      		cp r18,r24
 4046 18d2 3907      		cpc r19,r25
 4047 18d4 01F4      		brne .+2
 4048 18d6 00C0      		rjmp .L214
 4049               	.LM481:
 4050 18d8 5093 0000 		sts (queen_hrook)+1,r21
 4051 18dc 4093 0000 		sts queen_hrook,r20
 4052 18e0 6091 0000 		lds r22,rank
 4053 18e4 7091 0000 		lds r23,(rank)+1
 4054 18e8 0091 0000 		lds r16,rankb5
 4055 18ec 1091 0000 		lds r17,(rankb5)+1
 4056               	.LM482:
 4057 18f0 AE17      		cp r26,r30
 4058 18f2 BF07      		cpc r27,r31
 4059 18f4 01F0      		breq .+2
 4060 18f6 00C0      		rjmp .L215
 4061 18f8 0617      		cp r16,r22
 4062 18fa 1707      		cpc r17,r23
 4063 18fc 01F4      		brne .+4
 4064 18fe 0C94 0000 		jmp .L192
 4065               	.LM483:
 4066 1902 B093 0000 		sts (x2)+1,r27
 4067 1906 A093 0000 		sts x2,r26
 4068 190a B093 0000 		sts (x1)+1,r27
 4069 190e A093 0000 		sts x1,r26
 4070               	.LM484:
 4071 1912 7093 0000 		sts (y2)+1,r23
 4072 1916 6093 0000 		sts y2,r22
 4073 191a 1093 0000 		sts (y1)+1,r17
 4074 191e 0093 0000 		sts y1,r16
 4075               	.LM485:
 4076 1922 2091 0000 		lds r18,fileb5
 4077 1926 3091 0000 		lds r19,fileb5+1
 4078 192a 8091 0000 		lds r24,file
 4079 192e 9091 0000 		lds r25,file+1
 4080 1932 DC01      		movw r26,r24
 4081 1934 53E0      		ldi r21,3
 4082 1936 AA0F      	1:	lsl r26
 4083 1938 BB1F      		rol r27
 4084 193a 5A95      		dec r21
 4085 193c 01F4      		brne 1b
 4086 193e 880F      		lsl r24
 4087 1940 991F      		rol r25
 4088 1942 A80F      		add r26,r24
 4089 1944 B91F      		adc r27,r25
 4090 1946 A60F      		add r26,r22
 4091 1948 B71F      		adc r27,r23
 4092 194a AA0F      		lsl r26
 4093 194c BB1F      		rol r27
 4094 194e AE01      		movw r20,r28
 4095 1950 4F5F      		subi r20,lo8(-(1))
 4096 1952 5F4F      		sbci r21,hi8(-(1))
 4097 1954 A40F      		add r26,r20
 4098 1956 B51F      		adc r27,r21
 4099 1958 C901      		movw r24,r18
 4100 195a FC01      		movw r30,r24
 4101 195c EE0F      		lsl r30
 4102 195e FF1F      		rol r31
 4103 1960 EE0F      		lsl r30
 4104 1962 FF1F      		rol r31
 4105 1964 EE0F      		lsl r30
 4106 1966 FF1F      		rol r31
 4107 1968 880F      		lsl r24
 4108 196a 991F      		rol r25
 4109 196c E80F      		add r30,r24
 4110 196e F91F      		adc r31,r25
 4111 1970 E00F      		add r30,r16
 4112 1972 F11F      		adc r31,r17
 4113 1974 EE0F      		lsl r30
 4114 1976 FF1F      		rol r31
 4115 1978 E40F      		add r30,r20
 4116 197a F51F      		adc r31,r21
 4117 197c 8081      		ld r24,Z
 4118 197e 9181      		ldd r25,Z+1
 4119 1980 8D93      		st X+,r24
 4120 1982 9C93      		st X,r25
 4121               	.LM486:
 4122 1984 C901      		movw r24,r18
 4123 1986 9C01      		movw r18,r24
 4124 1988 A3E0      		ldi r26,3
 4125 198a 220F      	1:	lsl r18
 4126 198c 331F      		rol r19
 4127 198e AA95      		dec r26
 4128 1990 01F4      		brne 1b
 4129 1992 880F      		lsl r24
 4130 1994 991F      		rol r25
 4131 1996 280F      		add r18,r24
 4132 1998 391F      		adc r19,r25
 4133 199a 200F      		add r18,r16
 4134 199c 311F      		adc r19,r17
 4135 199e 220F      		lsl r18
 4136 19a0 331F      		rol r19
 4137 19a2 420F      		add r20,r18
 4138 19a4 531F      		adc r21,r19
 4139 19a6 FA01      		movw r30,r20
 4140 19a8 1182      		std Z+1,__zero_reg__
 4141 19aa 1082      		st Z,__zero_reg__
 4142               	.LM487:
 4143 19ac 7093 0000 		sts (rankb5)+1,r23
 4144 19b0 6093 0000 		sts rankb5,r22
 4145 19b4 0C94 0000 		jmp .L192
 4146               	.L215:
 4147               	.LM488:
 4148 19b8 0617      		cp r16,r22
 4149 19ba 1707      		cpc r17,r23
 4150 19bc 01F0      		breq .+4
 4151 19be 0C94 0000 		jmp .L192
 4152               	.LM489:
 4153 19c2 F093 0000 		sts (x2)+1,r31
 4154 19c6 E093 0000 		sts x2,r30
 4155 19ca B093 0000 		sts (x1)+1,r27
 4156 19ce A093 0000 		sts x1,r26
 4157               	.LM490:
 4158 19d2 1093 0000 		sts (y2)+1,r17
 4159 19d6 0093 0000 		sts y2,r16
 4160 19da 1093 0000 		sts (y1)+1,r17
 4161 19de 0093 0000 		sts y1,r16
 4162               	.LM491:
 4163 19e2 6091 0000 		lds r22,file
 4164 19e6 7091 0000 		lds r23,file+1
 4165 19ea 2091 0000 		lds r18,fileb5
 4166 19ee 3091 0000 		lds r19,fileb5+1
 4167 19f2 CB01      		movw r24,r22
 4168 19f4 DC01      		movw r26,r24
 4169 19f6 53E0      		ldi r21,3
 4170 19f8 AA0F      	1:	lsl r26
 4171 19fa BB1F      		rol r27
 4172 19fc 5A95      		dec r21
 4173 19fe 01F4      		brne 1b
 4174 1a00 880F      		lsl r24
 4175 1a02 991F      		rol r25
 4176 1a04 A80F      		add r26,r24
 4177 1a06 B91F      		adc r27,r25
 4178 1a08 A00F      		add r26,r16
 4179 1a0a B11F      		adc r27,r17
 4180 1a0c AA0F      		lsl r26
 4181 1a0e BB1F      		rol r27
 4182 1a10 AE01      		movw r20,r28
 4183 1a12 4F5F      		subi r20,lo8(-(1))
 4184 1a14 5F4F      		sbci r21,hi8(-(1))
 4185 1a16 A40F      		add r26,r20
 4186 1a18 B51F      		adc r27,r21
 4187 1a1a C901      		movw r24,r18
 4188 1a1c FC01      		movw r30,r24
 4189 1a1e EE0F      		lsl r30
 4190 1a20 FF1F      		rol r31
 4191 1a22 EE0F      		lsl r30
 4192 1a24 FF1F      		rol r31
 4193 1a26 EE0F      		lsl r30
 4194 1a28 FF1F      		rol r31
 4195 1a2a 880F      		lsl r24
 4196 1a2c 991F      		rol r25
 4197 1a2e E80F      		add r30,r24
 4198 1a30 F91F      		adc r31,r25
 4199 1a32 E00F      		add r30,r16
 4200 1a34 F11F      		adc r31,r17
 4201 1a36 EE0F      		lsl r30
 4202 1a38 FF1F      		rol r31
 4203 1a3a E40F      		add r30,r20
 4204 1a3c F51F      		adc r31,r21
 4205 1a3e 8081      		ld r24,Z
 4206 1a40 9181      		ldd r25,Z+1
 4207 1a42 8D93      		st X+,r24
 4208 1a44 9C93      		st X,r25
 4209               	.LM492:
 4210 1a46 C901      		movw r24,r18
 4211 1a48 9C01      		movw r18,r24
 4212 1a4a A3E0      		ldi r26,3
 4213 1a4c 220F      	1:	lsl r18
 4214 1a4e 331F      		rol r19
 4215 1a50 AA95      		dec r26
 4216 1a52 01F4      		brne 1b
 4217 1a54 880F      		lsl r24
 4218 1a56 991F      		rol r25
 4219 1a58 280F      		add r18,r24
 4220 1a5a 391F      		adc r19,r25
 4221 1a5c 200F      		add r18,r16
 4222 1a5e 311F      		adc r19,r17
 4223 1a60 220F      		lsl r18
 4224 1a62 331F      		rol r19
 4225 1a64 420F      		add r20,r18
 4226 1a66 531F      		adc r21,r19
 4227 1a68 FA01      		movw r30,r20
 4228 1a6a 1182      		std Z+1,__zero_reg__
 4229 1a6c 1082      		st Z,__zero_reg__
 4230               	.LM493:
 4231 1a6e 6093 0000 		sts fileb5,r22
 4232 1a72 7093 0000 		sts fileb5+1,r23
 4233 1a76 0C94 0000 		jmp .L192
 4234               	.L214:
 4235               	.LM494:
 4236 1a7a 5093 0000 		sts (queen_bishop)+1,r21
 4237 1a7e 4093 0000 		sts queen_bishop,r20
 4238               	.LM495:
 4239 1a82 0091 0000 		lds r16,rank
 4240 1a86 1091 0000 		lds r17,(rank)+1
 4241 1a8a 1093 0000 		sts (x2)+1,r17
 4242 1a8e 0093 0000 		sts x2,r16
 4243 1a92 6091 0000 		lds r22,rankb5
 4244 1a96 7091 0000 		lds r23,(rankb5)+1
 4245 1a9a 7093 0000 		sts (x1)+1,r23
 4246 1a9e 6093 0000 		sts x1,r22
 4247               	.LM496:
 4248 1aa2 F093 0000 		sts (y2)+1,r31
 4249 1aa6 E093 0000 		sts y2,r30
 4250 1aaa B093 0000 		sts (y1)+1,r27
 4251 1aae A093 0000 		sts y1,r26
 4252               	.LM497:
 4253 1ab2 F090 0000 		lds r15,file
 4254 1ab6 E090 0000 		lds r14,file+1
 4255 1aba 2091 0000 		lds r18,fileb5
 4256 1abe 3091 0000 		lds r19,fileb5+1
 4257 1ac2 8F2D      		mov r24,r15
 4258 1ac4 9E2D      		mov r25,r14
 4259 1ac6 DC01      		movw r26,r24
 4260 1ac8 53E0      		ldi r21,3
 4261 1aca AA0F      	1:	lsl r26
 4262 1acc BB1F      		rol r27
 4263 1ace 5A95      		dec r21
 4264 1ad0 01F4      		brne 1b
 4265 1ad2 880F      		lsl r24
 4266 1ad4 991F      		rol r25
 4267 1ad6 A80F      		add r26,r24
 4268 1ad8 B91F      		adc r27,r25
 4269 1ada A00F      		add r26,r16
 4270 1adc B11F      		adc r27,r17
 4271 1ade AA0F      		lsl r26
 4272 1ae0 BB1F      		rol r27
 4273 1ae2 AE01      		movw r20,r28
 4274 1ae4 4F5F      		subi r20,lo8(-(1))
 4275 1ae6 5F4F      		sbci r21,hi8(-(1))
 4276 1ae8 A40F      		add r26,r20
 4277 1aea B51F      		adc r27,r21
 4278 1aec C901      		movw r24,r18
 4279 1aee FC01      		movw r30,r24
 4280 1af0 EE0F      		lsl r30
 4281 1af2 FF1F      		rol r31
 4282 1af4 EE0F      		lsl r30
 4283 1af6 FF1F      		rol r31
 4284 1af8 EE0F      		lsl r30
 4285 1afa FF1F      		rol r31
 4286 1afc 880F      		lsl r24
 4287 1afe 991F      		rol r25
 4288 1b00 E80F      		add r30,r24
 4289 1b02 F91F      		adc r31,r25
 4290 1b04 E60F      		add r30,r22
 4291 1b06 F71F      		adc r31,r23
 4292 1b08 EE0F      		lsl r30
 4293 1b0a FF1F      		rol r31
 4294 1b0c E40F      		add r30,r20
 4295 1b0e F51F      		adc r31,r21
 4296 1b10 8081      		ld r24,Z
 4297 1b12 9181      		ldd r25,Z+1
 4298 1b14 8D93      		st X+,r24
 4299 1b16 9C93      		st X,r25
 4300               	.LM498:
 4301 1b18 C901      		movw r24,r18
 4302 1b1a 9C01      		movw r18,r24
 4303 1b1c F3E0      		ldi r31,3
 4304 1b1e 220F      	1:	lsl r18
 4305 1b20 331F      		rol r19
 4306 1b22 FA95      		dec r31
 4307 1b24 01F4      		brne 1b
 4308 1b26 880F      		lsl r24
 4309 1b28 991F      		rol r25
 4310 1b2a 280F      		add r18,r24
 4311 1b2c 391F      		adc r19,r25
 4312 1b2e 260F      		add r18,r22
 4313 1b30 371F      		adc r19,r23
 4314 1b32 220F      		lsl r18
 4315 1b34 331F      		rol r19
 4316 1b36 420F      		add r20,r18
 4317 1b38 531F      		adc r21,r19
 4318 1b3a FA01      		movw r30,r20
 4319 1b3c 1182      		std Z+1,__zero_reg__
 4320 1b3e 1082      		st Z,__zero_reg__
 4321               	.LM499:
 4322 1b40 F092 0000 		sts fileb5,r15
 4323 1b44 E092 0000 		sts fileb5+1,r14
 4324 1b48 1093 0000 		sts (rankb5)+1,r17
 4325 1b4c 0093 0000 		sts rankb5,r16
 4326 1b50 0C94 0000 		jmp .L192
 4327               	.L209:
 4328               	.LM500:
 4329 1b54 8330      		cpi r24,3
 4330 1b56 9105      		cpc r25,__zero_reg__
 4331 1b58 01F0      		breq .+2
 4332 1b5a 00C0      		rjmp .L216
 4333               	.L217:
 4334               	.LM501:
 4335 1b5c 8091 0000 		lds r24,moves
 4336 1b60 9091 0000 		lds r25,moves+1
 4337 1b64 80FD      		sbrc r24,0
 4338 1b66 00C0      		rjmp .L218
 4339               	.LM502:
 4340 1b68 2091 0000 		lds r18,filew4
 4341 1b6c 3091 0000 		lds r19,(filew4)+1
 4342 1b70 4091 0000 		lds r20,file
 4343 1b74 5091 0000 		lds r21,(file)+1
 4344 1b78 6091 0000 		lds r22,rank
 4345 1b7c 7091 0000 		lds r23,(rank)+1
 4346 1b80 0091 0000 		lds r16,rankw4
 4347 1b84 1091 0000 		lds r17,(rankw4)+1
 4348 1b88 2417      		cp r18,r20
 4349 1b8a 3507      		cpc r19,r21
 4350 1b8c 01F0      		breq .+2
 4351 1b8e 00C0      		rjmp .L219
 4352 1b90 0617      		cp r16,r22
 4353 1b92 1707      		cpc r17,r23
 4354 1b94 01F4      		brne .+2
 4355 1b96 00C0      		rjmp .L220
 4356               	.LM503:
 4357 1b98 81E0      		ldi r24,lo8(1)
 4358 1b9a 90E0      		ldi r25,hi8(1)
 4359 1b9c 9093 0000 		sts (queen_hrook)+1,r25
 4360 1ba0 8093 0000 		sts queen_hrook,r24
 4361               	.LM504:
 4362 1ba4 3093 0000 		sts (x2)+1,r19
 4363 1ba8 2093 0000 		sts x2,r18
 4364 1bac 3093 0000 		sts (x1)+1,r19
 4365 1bb0 2093 0000 		sts x1,r18
 4366               	.LM505:
 4367 1bb4 7093 0000 		sts (y2)+1,r23
 4368 1bb8 6093 0000 		sts y2,r22
 4369 1bbc 1093 0000 		sts (y1)+1,r17
 4370 1bc0 0093 0000 		sts y1,r16
 4371               	.LM506:
 4372 1bc4 2091 0000 		lds r18,filew4
 4373 1bc8 3091 0000 		lds r19,filew4+1
 4374 1bcc 8091 0000 		lds r24,file
 4375 1bd0 9091 0000 		lds r25,file+1
 4376 1bd4 DC01      		movw r26,r24
 4377 1bd6 53E0      		ldi r21,3
 4378 1bd8 AA0F      	1:	lsl r26
 4379 1bda BB1F      		rol r27
 4380 1bdc 5A95      		dec r21
 4381 1bde 01F4      		brne 1b
 4382 1be0 880F      		lsl r24
 4383 1be2 991F      		rol r25
 4384 1be4 A80F      		add r26,r24
 4385 1be6 B91F      		adc r27,r25
 4386 1be8 A60F      		add r26,r22
 4387 1bea B71F      		adc r27,r23
 4388 1bec AA0F      		lsl r26
 4389 1bee BB1F      		rol r27
 4390 1bf0 AE01      		movw r20,r28
 4391 1bf2 4F5F      		subi r20,lo8(-(1))
 4392 1bf4 5F4F      		sbci r21,hi8(-(1))
 4393 1bf6 A40F      		add r26,r20
 4394 1bf8 B51F      		adc r27,r21
 4395 1bfa C901      		movw r24,r18
 4396 1bfc FC01      		movw r30,r24
 4397 1bfe EE0F      		lsl r30
 4398 1c00 FF1F      		rol r31
 4399 1c02 EE0F      		lsl r30
 4400 1c04 FF1F      		rol r31
 4401 1c06 EE0F      		lsl r30
 4402 1c08 FF1F      		rol r31
 4403 1c0a 880F      		lsl r24
 4404 1c0c 991F      		rol r25
 4405 1c0e E80F      		add r30,r24
 4406 1c10 F91F      		adc r31,r25
 4407 1c12 E00F      		add r30,r16
 4408 1c14 F11F      		adc r31,r17
 4409 1c16 EE0F      		lsl r30
 4410 1c18 FF1F      		rol r31
 4411 1c1a E40F      		add r30,r20
 4412 1c1c F51F      		adc r31,r21
 4413 1c1e 8081      		ld r24,Z
 4414 1c20 9181      		ldd r25,Z+1
 4415 1c22 8D93      		st X+,r24
 4416 1c24 9C93      		st X,r25
 4417               	.LM507:
 4418 1c26 C901      		movw r24,r18
 4419 1c28 9C01      		movw r18,r24
 4420 1c2a A3E0      		ldi r26,3
 4421 1c2c 220F      	1:	lsl r18
 4422 1c2e 331F      		rol r19
 4423 1c30 AA95      		dec r26
 4424 1c32 01F4      		brne 1b
 4425 1c34 880F      		lsl r24
 4426 1c36 991F      		rol r25
 4427 1c38 280F      		add r18,r24
 4428 1c3a 391F      		adc r19,r25
 4429 1c3c 200F      		add r18,r16
 4430 1c3e 311F      		adc r19,r17
 4431 1c40 220F      		lsl r18
 4432 1c42 331F      		rol r19
 4433 1c44 420F      		add r20,r18
 4434 1c46 531F      		adc r21,r19
 4435 1c48 FA01      		movw r30,r20
 4436 1c4a 1182      		std Z+1,__zero_reg__
 4437 1c4c 1082      		st Z,__zero_reg__
 4438               	.LM508:
 4439 1c4e 7093 0000 		sts (rankw4)+1,r23
 4440 1c52 6093 0000 		sts rankw4,r22
 4441 1c56 00C0      		rjmp .L220
 4442               	.L219:
 4443               	.LM509:
 4444 1c58 0617      		cp r16,r22
 4445 1c5a 1707      		cpc r17,r23
 4446 1c5c 01F0      		breq .+2
 4447 1c5e 00C0      		rjmp .L220
 4448               	.LM510:
 4449 1c60 81E0      		ldi r24,lo8(1)
 4450 1c62 90E0      		ldi r25,hi8(1)
 4451 1c64 9093 0000 		sts (queen_hrook)+1,r25
 4452 1c68 8093 0000 		sts queen_hrook,r24
 4453               	.LM511:
 4454 1c6c 5093 0000 		sts (x2)+1,r21
 4455 1c70 4093 0000 		sts x2,r20
 4456 1c74 3093 0000 		sts (x1)+1,r19
 4457 1c78 2093 0000 		sts x1,r18
 4458               	.LM512:
 4459 1c7c 1093 0000 		sts (y2)+1,r17
 4460 1c80 0093 0000 		sts y2,r16
 4461 1c84 1093 0000 		sts (y1)+1,r17
 4462 1c88 0093 0000 		sts y1,r16
 4463               	.LM513:
 4464 1c8c 6091 0000 		lds r22,file
 4465 1c90 7091 0000 		lds r23,file+1
 4466 1c94 2091 0000 		lds r18,filew4
 4467 1c98 3091 0000 		lds r19,filew4+1
 4468 1c9c CB01      		movw r24,r22
 4469 1c9e DC01      		movw r26,r24
 4470 1ca0 53E0      		ldi r21,3
 4471 1ca2 AA0F      	1:	lsl r26
 4472 1ca4 BB1F      		rol r27
 4473 1ca6 5A95      		dec r21
 4474 1ca8 01F4      		brne 1b
 4475 1caa 880F      		lsl r24
 4476 1cac 991F      		rol r25
 4477 1cae A80F      		add r26,r24
 4478 1cb0 B91F      		adc r27,r25
 4479 1cb2 A00F      		add r26,r16
 4480 1cb4 B11F      		adc r27,r17
 4481 1cb6 AA0F      		lsl r26
 4482 1cb8 BB1F      		rol r27
 4483 1cba AE01      		movw r20,r28
 4484 1cbc 4F5F      		subi r20,lo8(-(1))
 4485 1cbe 5F4F      		sbci r21,hi8(-(1))
 4486 1cc0 A40F      		add r26,r20
 4487 1cc2 B51F      		adc r27,r21
 4488 1cc4 C901      		movw r24,r18
 4489 1cc6 FC01      		movw r30,r24
 4490 1cc8 EE0F      		lsl r30
 4491 1cca FF1F      		rol r31
 4492 1ccc EE0F      		lsl r30
 4493 1cce FF1F      		rol r31
 4494 1cd0 EE0F      		lsl r30
 4495 1cd2 FF1F      		rol r31
 4496 1cd4 880F      		lsl r24
 4497 1cd6 991F      		rol r25
 4498 1cd8 E80F      		add r30,r24
 4499 1cda F91F      		adc r31,r25
 4500 1cdc E00F      		add r30,r16
 4501 1cde F11F      		adc r31,r17
 4502 1ce0 EE0F      		lsl r30
 4503 1ce2 FF1F      		rol r31
 4504 1ce4 E40F      		add r30,r20
 4505 1ce6 F51F      		adc r31,r21
 4506 1ce8 8081      		ld r24,Z
 4507 1cea 9181      		ldd r25,Z+1
 4508 1cec 8D93      		st X+,r24
 4509 1cee 9C93      		st X,r25
 4510               	.LM514:
 4511 1cf0 C901      		movw r24,r18
 4512 1cf2 9C01      		movw r18,r24
 4513 1cf4 A3E0      		ldi r26,3
 4514 1cf6 220F      	1:	lsl r18
 4515 1cf8 331F      		rol r19
 4516 1cfa AA95      		dec r26
 4517 1cfc 01F4      		brne 1b
 4518 1cfe 880F      		lsl r24
 4519 1d00 991F      		rol r25
 4520 1d02 280F      		add r18,r24
 4521 1d04 391F      		adc r19,r25
 4522 1d06 200F      		add r18,r16
 4523 1d08 311F      		adc r19,r17
 4524 1d0a 220F      		lsl r18
 4525 1d0c 331F      		rol r19
 4526 1d0e 420F      		add r20,r18
 4527 1d10 531F      		adc r21,r19
 4528 1d12 FA01      		movw r30,r20
 4529 1d14 1182      		std Z+1,__zero_reg__
 4530 1d16 1082      		st Z,__zero_reg__
 4531               	.LM515:
 4532 1d18 6093 0000 		sts filew4,r22
 4533 1d1c 7093 0000 		sts filew4+1,r23
 4534               	.L220:
 4535               	.LM516:
 4536 1d20 0E94 0000 		call check_color
 4537               	.LM517:
 4538 1d24 2091 0000 		lds r18,color
 4539 1d28 3091 0000 		lds r19,(color)+1
 4540 1d2c 8091 0000 		lds r24,qd1_color
 4541 1d30 9091 0000 		lds r25,(qd1_color)+1
 4542 1d34 2817      		cp r18,r24
 4543 1d36 3907      		cpc r19,r25
 4544 1d38 01F0      		breq .+4
 4545 1d3a 0C94 0000 		jmp .L192
 4546               	.LM518:
 4547 1d3e 81E0      		ldi r24,lo8(1)
 4548 1d40 90E0      		ldi r25,hi8(1)
 4549 1d42 9093 0000 		sts (queen_bishop)+1,r25
 4550 1d46 8093 0000 		sts queen_bishop,r24
 4551               	.LM519:
 4552 1d4a 2091 0000 		lds r18,filew4
 4553 1d4e 3091 0000 		lds r19,(filew4)+1
 4554 1d52 8091 0000 		lds r24,file
 4555 1d56 9091 0000 		lds r25,(file)+1
 4556 1d5a 2817      		cp r18,r24
 4557 1d5c 3907      		cpc r19,r25
 4558 1d5e 01F4      		brne .+4
 4559 1d60 0C94 0000 		jmp .L192
 4560 1d64 E090 0000 		lds r14,rank
 4561 1d68 F090 0000 		lds r15,(rank)+1
 4562 1d6c 0091 0000 		lds r16,rankw4
 4563 1d70 1091 0000 		lds r17,(rankw4)+1
 4564 1d74 0E15      		cp r16,r14
 4565 1d76 1F05      		cpc r17,r15
 4566 1d78 01F4      		brne .+4
 4567 1d7a 0C94 0000 		jmp .L192
 4568               	.LM520:
 4569 1d7e F092 0000 		sts (x2)+1,r15
 4570 1d82 E092 0000 		sts x2,r14
 4571 1d86 1093 0000 		sts (x1)+1,r17
 4572 1d8a 0093 0000 		sts x1,r16
 4573               	.LM521:
 4574 1d8e 9093 0000 		sts (y2)+1,r25
 4575 1d92 8093 0000 		sts y2,r24
 4576 1d96 3093 0000 		sts (y1)+1,r19
 4577 1d9a 2093 0000 		sts y1,r18
 4578               	.LM522:
 4579 1d9e 6091 0000 		lds r22,file
 4580 1da2 7091 0000 		lds r23,file+1
 4581 1da6 2091 0000 		lds r18,filew4
 4582 1daa 3091 0000 		lds r19,filew4+1
 4583 1dae CB01      		movw r24,r22
 4584 1db0 DC01      		movw r26,r24
 4585 1db2 53E0      		ldi r21,3
 4586 1db4 AA0F      	1:	lsl r26
 4587 1db6 BB1F      		rol r27
 4588 1db8 5A95      		dec r21
 4589 1dba 01F4      		brne 1b
 4590 1dbc 880F      		lsl r24
 4591 1dbe 991F      		rol r25
 4592 1dc0 A80F      		add r26,r24
 4593 1dc2 B91F      		adc r27,r25
 4594 1dc4 AE0D      		add r26,r14
 4595 1dc6 BF1D      		adc r27,r15
 4596 1dc8 AA0F      		lsl r26
 4597 1dca BB1F      		rol r27
 4598 1dcc AE01      		movw r20,r28
 4599 1dce 4F5F      		subi r20,lo8(-(1))
 4600 1dd0 5F4F      		sbci r21,hi8(-(1))
 4601 1dd2 A40F      		add r26,r20
 4602 1dd4 B51F      		adc r27,r21
 4603 1dd6 C901      		movw r24,r18
 4604 1dd8 FC01      		movw r30,r24
 4605 1dda EE0F      		lsl r30
 4606 1ddc FF1F      		rol r31
 4607 1dde EE0F      		lsl r30
 4608 1de0 FF1F      		rol r31
 4609 1de2 EE0F      		lsl r30
 4610 1de4 FF1F      		rol r31
 4611 1de6 880F      		lsl r24
 4612 1de8 991F      		rol r25
 4613 1dea E80F      		add r30,r24
 4614 1dec F91F      		adc r31,r25
 4615 1dee E00F      		add r30,r16
 4616 1df0 F11F      		adc r31,r17
 4617 1df2 EE0F      		lsl r30
 4618 1df4 FF1F      		rol r31
 4619 1df6 E40F      		add r30,r20
 4620 1df8 F51F      		adc r31,r21
 4621 1dfa 8081      		ld r24,Z
 4622 1dfc 9181      		ldd r25,Z+1
 4623 1dfe 8D93      		st X+,r24
 4624 1e00 9C93      		st X,r25
 4625               	.LM523:
 4626 1e02 C901      		movw r24,r18
 4627 1e04 9C01      		movw r18,r24
 4628 1e06 A3E0      		ldi r26,3
 4629 1e08 220F      	1:	lsl r18
 4630 1e0a 331F      		rol r19
 4631 1e0c AA95      		dec r26
 4632 1e0e 01F4      		brne 1b
 4633 1e10 880F      		lsl r24
 4634 1e12 991F      		rol r25
 4635 1e14 280F      		add r18,r24
 4636 1e16 391F      		adc r19,r25
 4637 1e18 200F      		add r18,r16
 4638 1e1a 311F      		adc r19,r17
 4639 1e1c 220F      		lsl r18
 4640 1e1e 331F      		rol r19
 4641 1e20 420F      		add r20,r18
 4642 1e22 531F      		adc r21,r19
 4643 1e24 FA01      		movw r30,r20
 4644 1e26 1182      		std Z+1,__zero_reg__
 4645 1e28 1082      		st Z,__zero_reg__
 4646               	.LM524:
 4647 1e2a 6093 0000 		sts filew4,r22
 4648 1e2e 7093 0000 		sts filew4+1,r23
 4649 1e32 F092 0000 		sts (rankw4)+1,r15
 4650 1e36 E092 0000 		sts rankw4,r14
 4651 1e3a 0C94 0000 		jmp .L192
 4652               	.L218:
 4653               	.LM525:
 4654 1e3e 62E0      		ldi r22,lo8(2)
 4655 1e40 70E0      		ldi r23,hi8(2)
 4656 1e42 0E94 0000 		call __divmodhi4
 4657 1e46 8130      		cpi r24,1
 4658 1e48 9105      		cpc r25,__zero_reg__
 4659 1e4a 01F0      		breq .+4
 4660 1e4c 0C94 0000 		jmp .L192
 4661               	.LM526:
 4662 1e50 2091 0000 		lds r18,fileb4
 4663 1e54 3091 0000 		lds r19,(fileb4)+1
 4664 1e58 4091 0000 		lds r20,file
 4665 1e5c 5091 0000 		lds r21,(file)+1
 4666 1e60 6091 0000 		lds r22,rank
 4667 1e64 7091 0000 		lds r23,(rank)+1
 4668 1e68 0091 0000 		lds r16,rankb4
 4669 1e6c 1091 0000 		lds r17,(rankb4)+1
 4670 1e70 2417      		cp r18,r20
 4671 1e72 3507      		cpc r19,r21
 4672 1e74 01F0      		breq .+2
 4673 1e76 00C0      		rjmp .L221
 4674 1e78 0617      		cp r16,r22
 4675 1e7a 1707      		cpc r17,r23
 4676 1e7c 01F4      		brne .+2
 4677 1e7e 00C0      		rjmp .L222
 4678               	.LM527:
 4679 1e80 9093 0000 		sts (queen_hrook)+1,r25
 4680 1e84 8093 0000 		sts queen_hrook,r24
 4681               	.LM528:
 4682 1e88 3093 0000 		sts (x2)+1,r19
 4683 1e8c 2093 0000 		sts x2,r18
 4684 1e90 3093 0000 		sts (x1)+1,r19
 4685 1e94 2093 0000 		sts x1,r18
 4686               	.LM529:
 4687 1e98 7093 0000 		sts (y2)+1,r23
 4688 1e9c 6093 0000 		sts y2,r22
 4689 1ea0 1093 0000 		sts (y1)+1,r17
 4690 1ea4 0093 0000 		sts y1,r16
 4691               	.LM530:
 4692 1ea8 2091 0000 		lds r18,fileb4
 4693 1eac 3091 0000 		lds r19,fileb4+1
 4694 1eb0 8091 0000 		lds r24,file
 4695 1eb4 9091 0000 		lds r25,file+1
 4696 1eb8 DC01      		movw r26,r24
 4697 1eba 53E0      		ldi r21,3
 4698 1ebc AA0F      	1:	lsl r26
 4699 1ebe BB1F      		rol r27
 4700 1ec0 5A95      		dec r21
 4701 1ec2 01F4      		brne 1b
 4702 1ec4 880F      		lsl r24
 4703 1ec6 991F      		rol r25
 4704 1ec8 A80F      		add r26,r24
 4705 1eca B91F      		adc r27,r25
 4706 1ecc A60F      		add r26,r22
 4707 1ece B71F      		adc r27,r23
 4708 1ed0 AA0F      		lsl r26
 4709 1ed2 BB1F      		rol r27
 4710 1ed4 AE01      		movw r20,r28
 4711 1ed6 4F5F      		subi r20,lo8(-(1))
 4712 1ed8 5F4F      		sbci r21,hi8(-(1))
 4713 1eda A40F      		add r26,r20
 4714 1edc B51F      		adc r27,r21
 4715 1ede C901      		movw r24,r18
 4716 1ee0 FC01      		movw r30,r24
 4717 1ee2 EE0F      		lsl r30
 4718 1ee4 FF1F      		rol r31
 4719 1ee6 EE0F      		lsl r30
 4720 1ee8 FF1F      		rol r31
 4721 1eea EE0F      		lsl r30
 4722 1eec FF1F      		rol r31
 4723 1eee 880F      		lsl r24
 4724 1ef0 991F      		rol r25
 4725 1ef2 E80F      		add r30,r24
 4726 1ef4 F91F      		adc r31,r25
 4727 1ef6 E00F      		add r30,r16
 4728 1ef8 F11F      		adc r31,r17
 4729 1efa EE0F      		lsl r30
 4730 1efc FF1F      		rol r31
 4731 1efe E40F      		add r30,r20
 4732 1f00 F51F      		adc r31,r21
 4733 1f02 8081      		ld r24,Z
 4734 1f04 9181      		ldd r25,Z+1
 4735 1f06 8D93      		st X+,r24
 4736 1f08 9C93      		st X,r25
 4737               	.LM531:
 4738 1f0a C901      		movw r24,r18
 4739 1f0c 9C01      		movw r18,r24
 4740 1f0e A3E0      		ldi r26,3
 4741 1f10 220F      	1:	lsl r18
 4742 1f12 331F      		rol r19
 4743 1f14 AA95      		dec r26
 4744 1f16 01F4      		brne 1b
 4745 1f18 880F      		lsl r24
 4746 1f1a 991F      		rol r25
 4747 1f1c 280F      		add r18,r24
 4748 1f1e 391F      		adc r19,r25
 4749 1f20 200F      		add r18,r16
 4750 1f22 311F      		adc r19,r17
 4751 1f24 220F      		lsl r18
 4752 1f26 331F      		rol r19
 4753 1f28 420F      		add r20,r18
 4754 1f2a 531F      		adc r21,r19
 4755 1f2c FA01      		movw r30,r20
 4756 1f2e 1182      		std Z+1,__zero_reg__
 4757 1f30 1082      		st Z,__zero_reg__
 4758               	.LM532:
 4759 1f32 7093 0000 		sts (rankb4)+1,r23
 4760 1f36 6093 0000 		sts rankb4,r22
 4761 1f3a 00C0      		rjmp .L222
 4762               	.L221:
 4763               	.LM533:
 4764 1f3c 0617      		cp r16,r22
 4765 1f3e 1707      		cpc r17,r23
 4766 1f40 01F0      		breq .+2
 4767 1f42 00C0      		rjmp .L222
 4768               	.LM534:
 4769 1f44 9093 0000 		sts (queen_hrook)+1,r25
 4770 1f48 8093 0000 		sts queen_hrook,r24
 4771               	.LM535:
 4772 1f4c 5093 0000 		sts (x2)+1,r21
 4773 1f50 4093 0000 		sts x2,r20
 4774 1f54 3093 0000 		sts (x1)+1,r19
 4775 1f58 2093 0000 		sts x1,r18
 4776               	.LM536:
 4777 1f5c 1093 0000 		sts (y2)+1,r17
 4778 1f60 0093 0000 		sts y2,r16
 4779 1f64 1093 0000 		sts (y1)+1,r17
 4780 1f68 0093 0000 		sts y1,r16
 4781               	.LM537:
 4782 1f6c 6091 0000 		lds r22,file
 4783 1f70 7091 0000 		lds r23,file+1
 4784 1f74 2091 0000 		lds r18,fileb4
 4785 1f78 3091 0000 		lds r19,fileb4+1
 4786 1f7c CB01      		movw r24,r22
 4787 1f7e DC01      		movw r26,r24
 4788 1f80 53E0      		ldi r21,3
 4789 1f82 AA0F      	1:	lsl r26
 4790 1f84 BB1F      		rol r27
 4791 1f86 5A95      		dec r21
 4792 1f88 01F4      		brne 1b
 4793 1f8a 880F      		lsl r24
 4794 1f8c 991F      		rol r25
 4795 1f8e A80F      		add r26,r24
 4796 1f90 B91F      		adc r27,r25
 4797 1f92 A00F      		add r26,r16
 4798 1f94 B11F      		adc r27,r17
 4799 1f96 AA0F      		lsl r26
 4800 1f98 BB1F      		rol r27
 4801 1f9a AE01      		movw r20,r28
 4802 1f9c 4F5F      		subi r20,lo8(-(1))
 4803 1f9e 5F4F      		sbci r21,hi8(-(1))
 4804 1fa0 A40F      		add r26,r20
 4805 1fa2 B51F      		adc r27,r21
 4806 1fa4 C901      		movw r24,r18
 4807 1fa6 FC01      		movw r30,r24
 4808 1fa8 EE0F      		lsl r30
 4809 1faa FF1F      		rol r31
 4810 1fac EE0F      		lsl r30
 4811 1fae FF1F      		rol r31
 4812 1fb0 EE0F      		lsl r30
 4813 1fb2 FF1F      		rol r31
 4814 1fb4 880F      		lsl r24
 4815 1fb6 991F      		rol r25
 4816 1fb8 E80F      		add r30,r24
 4817 1fba F91F      		adc r31,r25
 4818 1fbc E00F      		add r30,r16
 4819 1fbe F11F      		adc r31,r17
 4820 1fc0 EE0F      		lsl r30
 4821 1fc2 FF1F      		rol r31
 4822 1fc4 E40F      		add r30,r20
 4823 1fc6 F51F      		adc r31,r21
 4824 1fc8 8081      		ld r24,Z
 4825 1fca 9181      		ldd r25,Z+1
 4826 1fcc 8D93      		st X+,r24
 4827 1fce 9C93      		st X,r25
 4828               	.LM538:
 4829 1fd0 C901      		movw r24,r18
 4830 1fd2 9C01      		movw r18,r24
 4831 1fd4 A3E0      		ldi r26,3
 4832 1fd6 220F      	1:	lsl r18
 4833 1fd8 331F      		rol r19
 4834 1fda AA95      		dec r26
 4835 1fdc 01F4      		brne 1b
 4836 1fde 880F      		lsl r24
 4837 1fe0 991F      		rol r25
 4838 1fe2 280F      		add r18,r24
 4839 1fe4 391F      		adc r19,r25
 4840 1fe6 200F      		add r18,r16
 4841 1fe8 311F      		adc r19,r17
 4842 1fea 220F      		lsl r18
 4843 1fec 331F      		rol r19
 4844 1fee 420F      		add r20,r18
 4845 1ff0 531F      		adc r21,r19
 4846 1ff2 FA01      		movw r30,r20
 4847 1ff4 1182      		std Z+1,__zero_reg__
 4848 1ff6 1082      		st Z,__zero_reg__
 4849               	.LM539:
 4850 1ff8 6093 0000 		sts fileb4,r22
 4851 1ffc 7093 0000 		sts fileb4+1,r23
 4852               	.L222:
 4853               	.LM540:
 4854 2000 0E94 0000 		call check_color
 4855               	.LM541:
 4856 2004 2091 0000 		lds r18,color
 4857 2008 3091 0000 		lds r19,(color)+1
 4858 200c 8091 0000 		lds r24,qd8_color
 4859 2010 9091 0000 		lds r25,(qd8_color)+1
 4860 2014 2817      		cp r18,r24
 4861 2016 3907      		cpc r19,r25
 4862 2018 01F0      		breq .+2
 4863 201a 00C0      		rjmp .L192
 4864               	.LM542:
 4865 201c 81E0      		ldi r24,lo8(1)
 4866 201e 90E0      		ldi r25,hi8(1)
 4867 2020 9093 0000 		sts (queen_bishop)+1,r25
 4868 2024 8093 0000 		sts queen_bishop,r24
 4869               	.LM543:
 4870 2028 2091 0000 		lds r18,fileb4
 4871 202c 3091 0000 		lds r19,(fileb4)+1
 4872 2030 8091 0000 		lds r24,file
 4873 2034 9091 0000 		lds r25,(file)+1
 4874 2038 2817      		cp r18,r24
 4875 203a 3907      		cpc r19,r25
 4876 203c 01F4      		brne .+2
 4877 203e 00C0      		rjmp .L192
 4878 2040 E090 0000 		lds r14,rank
 4879 2044 F090 0000 		lds r15,(rank)+1
 4880 2048 0091 0000 		lds r16,rankb4
 4881 204c 1091 0000 		lds r17,(rankb4)+1
 4882 2050 0E15      		cp r16,r14
 4883 2052 1F05      		cpc r17,r15
 4884 2054 01F4      		brne .+2
 4885 2056 00C0      		rjmp .L192
 4886               	.LM544:
 4887 2058 F092 0000 		sts (x2)+1,r15
 4888 205c E092 0000 		sts x2,r14
 4889 2060 1093 0000 		sts (x1)+1,r17
 4890 2064 0093 0000 		sts x1,r16
 4891               	.LM545:
 4892 2068 9093 0000 		sts (y2)+1,r25
 4893 206c 8093 0000 		sts y2,r24
 4894 2070 3093 0000 		sts (y1)+1,r19
 4895 2074 2093 0000 		sts y1,r18
 4896               	.LM546:
 4897 2078 6091 0000 		lds r22,file
 4898 207c 7091 0000 		lds r23,file+1
 4899 2080 2091 0000 		lds r18,fileb4
 4900 2084 3091 0000 		lds r19,fileb4+1
 4901 2088 CB01      		movw r24,r22
 4902 208a DC01      		movw r26,r24
 4903 208c 53E0      		ldi r21,3
 4904 208e AA0F      	1:	lsl r26
 4905 2090 BB1F      		rol r27
 4906 2092 5A95      		dec r21
 4907 2094 01F4      		brne 1b
 4908 2096 880F      		lsl r24
 4909 2098 991F      		rol r25
 4910 209a A80F      		add r26,r24
 4911 209c B91F      		adc r27,r25
 4912 209e AE0D      		add r26,r14
 4913 20a0 BF1D      		adc r27,r15
 4914 20a2 AA0F      		lsl r26
 4915 20a4 BB1F      		rol r27
 4916 20a6 AE01      		movw r20,r28
 4917 20a8 4F5F      		subi r20,lo8(-(1))
 4918 20aa 5F4F      		sbci r21,hi8(-(1))
 4919 20ac A40F      		add r26,r20
 4920 20ae B51F      		adc r27,r21
 4921 20b0 C901      		movw r24,r18
 4922 20b2 FC01      		movw r30,r24
 4923 20b4 EE0F      		lsl r30
 4924 20b6 FF1F      		rol r31
 4925 20b8 EE0F      		lsl r30
 4926 20ba FF1F      		rol r31
 4927 20bc EE0F      		lsl r30
 4928 20be FF1F      		rol r31
 4929 20c0 880F      		lsl r24
 4930 20c2 991F      		rol r25
 4931 20c4 E80F      		add r30,r24
 4932 20c6 F91F      		adc r31,r25
 4933 20c8 E00F      		add r30,r16
 4934 20ca F11F      		adc r31,r17
 4935 20cc EE0F      		lsl r30
 4936 20ce FF1F      		rol r31
 4937 20d0 E40F      		add r30,r20
 4938 20d2 F51F      		adc r31,r21
 4939 20d4 8081      		ld r24,Z
 4940 20d6 9181      		ldd r25,Z+1
 4941 20d8 8D93      		st X+,r24
 4942 20da 9C93      		st X,r25
 4943               	.LM547:
 4944 20dc C901      		movw r24,r18
 4945 20de 9C01      		movw r18,r24
 4946 20e0 F3E0      		ldi r31,3
 4947 20e2 220F      	1:	lsl r18
 4948 20e4 331F      		rol r19
 4949 20e6 FA95      		dec r31
 4950 20e8 01F4      		brne 1b
 4951 20ea 880F      		lsl r24
 4952 20ec 991F      		rol r25
 4953 20ee 280F      		add r18,r24
 4954 20f0 391F      		adc r19,r25
 4955 20f2 200F      		add r18,r16
 4956 20f4 311F      		adc r19,r17
 4957 20f6 220F      		lsl r18
 4958 20f8 331F      		rol r19
 4959 20fa 420F      		add r20,r18
 4960 20fc 531F      		adc r21,r19
 4961 20fe FA01      		movw r30,r20
 4962 2100 1182      		std Z+1,__zero_reg__
 4963 2102 1082      		st Z,__zero_reg__
 4964               	.LM548:
 4965 2104 6093 0000 		sts fileb4,r22
 4966 2108 7093 0000 		sts fileb4+1,r23
 4967 210c F092 0000 		sts (rankb4)+1,r15
 4968 2110 E092 0000 		sts rankb4,r14
 4969 2114 00C0      		rjmp .L192
 4970               	.L216:
 4971               	.LM549:
 4972 2116 0497      		sbiw r24,4
 4973 2118 01F0      		breq .+2
 4974 211a 00C0      		rjmp .L192
 4975               	.L223:
 4976               	.LM550:
 4977 211c A1E0      		ldi r26,lo8(1)
 4978 211e AA2E      		mov r10,r26
 4979 2120 B12C      		mov r11,__zero_reg__
 4980 2122 B092 0000 		sts (bishop)+1,r11
 4981 2126 A092 0000 		sts bishop,r10
 4982               	.LM551:
 4983 212a 8091 0000 		lds r24,moves
 4984 212e 9091 0000 		lds r25,moves+1
 4985 2132 80FD      		sbrc r24,0
 4986 2134 00C0      		rjmp .L224
 4987               	.LM552:
 4988 2136 6091 0000 		lds r22,file
 4989 213a 7091 0000 		lds r23,(file)+1
 4990 213e 9B01      		movw r18,r22
 4991 2140 2250      		subi r18,lo8(-(-2))
 4992 2142 3040      		sbci r19,hi8(-(-2))
 4993 2144 4091 0000 		lds r20,rank
 4994 2148 5091 0000 		lds r21,(rank)+1
 4995 214c 6A01      		movw r12,r20
 4996 214e 0894      		sec
 4997 2150 C108      		sbc r12,__zero_reg__
 4998 2152 D108      		sbc r13,__zero_reg__
 4999 2154 8901      		movw r16,r18
 5000 2156 000F      		lsl r16
 5001 2158 111F      		rol r17
 5002 215a C901      		movw r24,r18
 5003 215c E3E0      		ldi r30,3
 5004 215e 880F      	1:	lsl r24
 5005 2160 991F      		rol r25
 5006 2162 EA95      		dec r30
 5007 2164 01F4      		brne 1b
 5008 2166 080F      		add r16,r24
 5009 2168 191F      		adc r17,r25
 5010 216a F801      		movw r30,r16
 5011 216c EC0D      		add r30,r12
 5012 216e FD1D      		adc r31,r13
 5013 2170 EE0F      		lsl r30
 5014 2172 FF1F      		rol r31
 5015 2174 DE01      		movw r26,r28
 5016 2176 1196      		adiw r26,1
 5017 2178 EA0F      		add r30,r26
 5018 217a FB1F      		adc r31,r27
 5019 217c 8081      		ld r24,Z
 5020 217e 9181      		ldd r25,Z+1
 5021 2180 8531      		cpi r24,21
 5022 2182 9105      		cpc r25,__zero_reg__
 5023 2184 01F4      		brne .+2
 5024 2186 00C0      		rjmp .L293
 5025               	.L225:
 5026               	.LM553:
 5027 2188 8734      		cpi r24,71
 5028 218a 9105      		cpc r25,__zero_reg__
 5029 218c 01F4      		brne .+2
 5030 218e 00C0      		rjmp .L293
 5031               	.L227:
 5032               	.LM554:
 5033 2190 7A01      		movw r14,r20
 5034 2192 0894      		sec
 5035 2194 E11C      		adc r14,__zero_reg__
 5036 2196 F11C      		adc r15,__zero_reg__
 5037 2198 F801      		movw r30,r16
 5038 219a EE0D      		add r30,r14
 5039 219c FF1D      		adc r31,r15
 5040 219e EE0F      		lsl r30
 5041 21a0 FF1F      		rol r31
 5042 21a2 EA0F      		add r30,r26
 5043 21a4 FB1F      		adc r31,r27
 5044 21a6 8081      		ld r24,Z
 5045 21a8 9181      		ldd r25,Z+1
 5046 21aa 8531      		cpi r24,21
 5047 21ac 9105      		cpc r25,__zero_reg__
 5048 21ae 01F4      		brne .L228
 5049               	.L294:
 5050               	.LM555:
 5051 21b0 7093 0000 		sts (x2)+1,r23
 5052 21b4 6093 0000 		sts x2,r22
 5053 21b8 3093 0000 		sts (x1)+1,r19
 5054 21bc 2093 0000 		sts x1,r18
 5055               	.LM556:
 5056 21c0 5093 0000 		sts (y2)+1,r21
 5057 21c4 4093 0000 		sts y2,r20
 5058 21c8 F092 0000 		sts (y1)+1,r15
 5059 21cc E092 0000 		sts y1,r14
 5060               	.LM557:
 5061 21d0 FB01      		movw r30,r22
 5062 21d2 23E0      		ldi r18,3
 5063 21d4 EE0F      	1:	lsl r30
 5064 21d6 FF1F      		rol r31
 5065 21d8 2A95      		dec r18
 5066 21da 01F4      		brne 1b
 5067 21dc 660F      		lsl r22
 5068 21de 771F      		rol r23
 5069 21e0 E60F      		add r30,r22
 5070 21e2 F71F      		adc r31,r23
 5071 21e4 E40F      		add r30,r20
 5072 21e6 F51F      		adc r31,r21
 5073 21e8 EE0F      		lsl r30
 5074 21ea FF1F      		rol r31
 5075 21ec EA0F      		add r30,r26
 5076 21ee FB1F      		adc r31,r27
 5077 21f0 9183      		std Z+1,r25
 5078 21f2 8083      		st Z,r24
 5079               	.LM558:
 5080 21f4 400F      		add r20,r16
 5081 21f6 511F      		adc r21,r17
 5082 21f8 4F5F      		subi r20,lo8(-(1))
 5083 21fa 5F4F      		sbci r21,hi8(-(1))
 5084               	.L279:
 5085 21fc 440F      		lsl r20
 5086 21fe 551F      		rol r21
 5087 2200 A40F      		add r26,r20
 5088 2202 B51F      		adc r27,r21
 5089               	.L282:
 5090 2204 1D92      		st X+,__zero_reg__
 5091 2206 1C92      		st X,__zero_reg__
 5092 2208 00C0      		rjmp .L226
 5093               	.L228:
 5094               	.LM559:
 5095 220a 8734      		cpi r24,71
 5096 220c 9105      		cpc r25,__zero_reg__
 5097 220e 01F0      		breq .L294
 5098               	.L229:
 5099               	.LM560:
 5100 2210 9B01      		movw r18,r22
 5101 2212 2E5F      		subi r18,lo8(-(2))
 5102 2214 3F4F      		sbci r19,hi8(-(2))
 5103 2216 8901      		movw r16,r18
 5104 2218 000F      		lsl r16
 5105 221a 111F      		rol r17
 5106 221c C901      		movw r24,r18
 5107 221e E3E0      		ldi r30,3
 5108 2220 880F      	1:	lsl r24
 5109 2222 991F      		rol r25
 5110 2224 EA95      		dec r30
 5111 2226 01F4      		brne 1b
 5112 2228 080F      		add r16,r24
 5113 222a 191F      		adc r17,r25
 5114 222c F801      		movw r30,r16
 5115 222e EC0D      		add r30,r12
 5116 2230 FD1D      		adc r31,r13
 5117 2232 EE0F      		lsl r30
 5118 2234 FF1F      		rol r31
 5119 2236 EA0F      		add r30,r26
 5120 2238 FB1F      		adc r31,r27
 5121 223a 8081      		ld r24,Z
 5122 223c 9181      		ldd r25,Z+1
 5123 223e 8531      		cpi r24,21
 5124 2240 9105      		cpc r25,__zero_reg__
 5125 2242 01F0      		breq .L293
 5126               	.L230:
 5127               	.LM561:
 5128 2244 8734      		cpi r24,71
 5129 2246 9105      		cpc r25,__zero_reg__
 5130 2248 01F4      		brne .L231
 5131               	.L293:
 5132               	.LM562:
 5133 224a 7093 0000 		sts (x2)+1,r23
 5134 224e 6093 0000 		sts x2,r22
 5135 2252 3093 0000 		sts (x1)+1,r19
 5136 2256 2093 0000 		sts x1,r18
 5137               	.LM563:
 5138 225a 5093 0000 		sts (y2)+1,r21
 5139 225e 4093 0000 		sts y2,r20
 5140 2262 D092 0000 		sts (y1)+1,r13
 5141 2266 C092 0000 		sts y1,r12
 5142               	.LM564:
 5143 226a FB01      		movw r30,r22
 5144 226c 23E0      		ldi r18,3
 5145 226e EE0F      	1:	lsl r30
 5146 2270 FF1F      		rol r31
 5147 2272 2A95      		dec r18
 5148 2274 01F4      		brne 1b
 5149 2276 660F      		lsl r22
 5150 2278 771F      		rol r23
 5151 227a E60F      		add r30,r22
 5152 227c F71F      		adc r31,r23
 5153 227e E40F      		add r30,r20
 5154 2280 F51F      		adc r31,r21
 5155 2282 EE0F      		lsl r30
 5156 2284 FF1F      		rol r31
 5157 2286 EA0F      		add r30,r26
 5158 2288 FB1F      		adc r31,r27
 5159 228a 9183      		std Z+1,r25
 5160 228c 8083      		st Z,r24
 5161               	.LM565:
 5162 228e 400F      		add r20,r16
 5163 2290 511F      		adc r21,r17
 5164 2292 4A19      		sub r20,r10
 5165 2294 5B09      		sbc r21,r11
 5166 2296 00C0      		rjmp .L279
 5167               	.L231:
 5168               	.LM566:
 5169 2298 F801      		movw r30,r16
 5170 229a EE0D      		add r30,r14
 5171 229c FF1D      		adc r31,r15
 5172 229e EE0F      		lsl r30
 5173 22a0 FF1F      		rol r31
 5174 22a2 EA0F      		add r30,r26
 5175 22a4 FB1F      		adc r31,r27
 5176 22a6 8081      		ld r24,Z
 5177 22a8 9181      		ldd r25,Z+1
 5178 22aa 8531      		cpi r24,21
 5179 22ac 9105      		cpc r25,__zero_reg__
 5180 22ae 01F4      		brne .+2
 5181 22b0 00C0      		rjmp .L294
 5182               	.L232:
 5183               	.LM567:
 5184 22b2 8734      		cpi r24,71
 5185 22b4 9105      		cpc r25,__zero_reg__
 5186 22b6 01F4      		brne .+2
 5187 22b8 00C0      		rjmp .L294
 5188               	.L233:
 5189               	.LM568:
 5190 22ba 7B01      		movw r14,r22
 5191 22bc 0894      		sec
 5192 22be E108      		sbc r14,__zero_reg__
 5193 22c0 F108      		sbc r15,__zero_reg__
 5194 22c2 FA01      		movw r30,r20
 5195 22c4 3297      		sbiw r30,2
 5196 22c6 C701      		movw r24,r14
 5197 22c8 880F      		lsl r24
 5198 22ca 991F      		rol r25
 5199 22cc 9701      		movw r18,r14
 5200 22ce 03E0      		ldi r16,3
 5201 22d0 220F      	1:	lsl r18
 5202 22d2 331F      		rol r19
 5203 22d4 0A95      		dec r16
 5204 22d6 01F4      		brne 1b
 5205 22d8 820F      		add r24,r18
 5206 22da 931F      		adc r25,r19
 5207 22dc 8E0F      		add r24,r30
 5208 22de 9F1F      		adc r25,r31
 5209 22e0 880F      		lsl r24
 5210 22e2 991F      		rol r25
 5211 22e4 A80F      		add r26,r24
 5212 22e6 B91F      		adc r27,r25
 5213 22e8 0D90      		ld __tmp_reg__,X+
 5214 22ea BC91      		ld r27,X
 5215 22ec A02D      		mov r26,__tmp_reg__
 5216 22ee A531      		cpi r26,21
 5217 22f0 B105      		cpc r27,__zero_reg__
 5218 22f2 01F0      		breq .+2
 5219 22f4 00C0      		rjmp .L234
 5220               	.LM569:
 5221 22f6 7093 0000 		sts (x2)+1,r23
 5222 22fa 6093 0000 		sts x2,r22
 5223 22fe 8091 0000 		lds r24,file
 5224 2302 9091 0000 		lds r25,(file)+1
 5225 2306 AC01      		movw r20,r24
 5226 2308 4150      		subi r20,lo8(-(-1))
 5227 230a 5040      		sbci r21,hi8(-(-1))
 5228 230c 5093 0000 		sts (x1)+1,r21
 5229 2310 4093 0000 		sts x1,r20
 5230               	.LM570:
 5231 2314 2091 0000 		lds r18,rank
 5232 2318 3091 0000 		lds r19,(rank)+1
 5233 231c 3093 0000 		sts (y2)+1,r19
 5234 2320 2093 0000 		sts y2,r18
 5235 2324 2250      		subi r18,lo8(-(-2))
 5236 2326 3040      		sbci r19,hi8(-(-2))
 5237 2328 3093 0000 		sts (y1)+1,r19
 5238 232c 2093 0000 		sts y1,r18
 5239 2330 2E5F      		subi r18,lo8(-(2))
 5240 2332 3F4F      		sbci r19,hi8(-(2))
 5241               	.LM571:
 5242 2334 FC01      		movw r30,r24
 5243 2336 B3E0      		ldi r27,3
 5244 2338 EE0F      	1:	lsl r30
 5245 233a FF1F      		rol r31
 5246 233c BA95      		dec r27
 5247 233e 01F4      		brne 1b
 5248 2340 880F      		lsl r24
 5249 2342 991F      		rol r25
 5250 2344 E80F      		add r30,r24
 5251 2346 F91F      		adc r31,r25
 5252 2348 E20F      		add r30,r18
 5253 234a F31F      		adc r31,r19
 5254 234c EE0F      		lsl r30
 5255 234e FF1F      		rol r31
 5256 2350 DE01      		movw r26,r28
 5257 2352 1196      		adiw r26,1
 5258 2354 EA0F      		add r30,r26
 5259 2356 FB1F      		adc r31,r27
 5260 2358 85E1      		ldi r24,lo8(21)
 5261 235a 90E0      		ldi r25,hi8(21)
 5262 235c 9183      		std Z+1,r25
 5263 235e 8083      		st Z,r24
 5264               	.LM572:
 5265 2360 CA01      		movw r24,r20
 5266 2362 63E0      		ldi r22,3
 5267 2364 880F      	1:	lsl r24
 5268 2366 991F      		rol r25
 5269 2368 6A95      		dec r22
 5270 236a 01F4      		brne 1b
 5271 236c 440F      		lsl r20
 5272 236e 551F      		rol r21
 5273 2370 840F      		add r24,r20
 5274 2372 951F      		adc r25,r21
 5275 2374 820F      		add r24,r18
 5276 2376 931F      		adc r25,r19
 5277 2378 0297      		sbiw r24,2
 5278 237a 880F      		lsl r24
 5279 237c 991F      		rol r25
 5280 237e A80F      		add r26,r24
 5281 2380 B91F      		adc r27,r25
 5282 2382 00C0      		rjmp .L282
 5283               	.L234:
 5284 2384 8E01      		movw r16,r28
 5285 2386 0F5F      		subi r16,lo8(-(1))
 5286 2388 1F4F      		sbci r17,hi8(-(1))
 5287               	.LM573:
 5288 238a A734      		cpi r26,71
 5289 238c B105      		cpc r27,__zero_reg__
 5290 238e 01F4      		brne .L235
 5291               	.LM574:
 5292 2390 7093 0000 		sts (x2)+1,r23
 5293 2394 6093 0000 		sts x2,r22
 5294 2398 2091 0000 		lds r18,file
 5295 239c 3091 0000 		lds r19,(file)+1
 5296 23a0 A901      		movw r20,r18
 5297 23a2 4150      		subi r20,lo8(-(-1))
 5298 23a4 5040      		sbci r21,hi8(-(-1))
 5299 23a6 00C0      		rjmp .L289
 5300               	.L235:
 5301               	.LM575:
 5302 23a8 CB01      		movw r24,r22
 5303 23aa 0196      		adiw r24,1
 5304 23ac 9C01      		movw r18,r24
 5305 23ae A3E0      		ldi r26,3
 5306 23b0 220F      	1:	lsl r18
 5307 23b2 331F      		rol r19
 5308 23b4 AA95      		dec r26
 5309 23b6 01F4      		brne 1b
 5310 23b8 880F      		lsl r24
 5311 23ba 991F      		rol r25
 5312 23bc 280F      		add r18,r24
 5313 23be 391F      		adc r19,r25
 5314 23c0 E20F      		add r30,r18
 5315 23c2 F31F      		adc r31,r19
 5316 23c4 EE0F      		lsl r30
 5317 23c6 FF1F      		rol r31
 5318 23c8 E00F      		add r30,r16
 5319 23ca F11F      		adc r31,r17
 5320 23cc A081      		ld r26,Z
 5321 23ce B181      		ldd r27,Z+1
 5322 23d0 A531      		cpi r26,21
 5323 23d2 B105      		cpc r27,__zero_reg__
 5324 23d4 01F0      		breq .L300
 5325               	.L236:
 5326               	.LM576:
 5327 23d6 A734      		cpi r26,71
 5328 23d8 B105      		cpc r27,__zero_reg__
 5329 23da 01F4      		brne .L237
 5330               	.L300:
 5331               	.LM577:
 5332 23dc 7093 0000 		sts (x2)+1,r23
 5333 23e0 6093 0000 		sts x2,r22
 5334 23e4 00C0      		rjmp .L295
 5335               	.L237:
 5336               	.LM578:
 5337 23e6 DA01      		movw r26,r20
 5338 23e8 1296      		adiw r26,2
 5339 23ea F701      		movw r30,r14
 5340 23ec 43E0      		ldi r20,3
 5341 23ee EE0F      	1:	lsl r30
 5342 23f0 FF1F      		rol r31
 5343 23f2 4A95      		dec r20
 5344 23f4 01F4      		brne 1b
 5345 23f6 EE0C      		lsl r14
 5346 23f8 FF1C      		rol r15
 5347 23fa EE0D      		add r30,r14
 5348 23fc FF1D      		adc r31,r15
 5349 23fe EA0F      		add r30,r26
 5350 2400 FB1F      		adc r31,r27
 5351 2402 EE0F      		lsl r30
 5352 2404 FF1F      		rol r31
 5353 2406 E00F      		add r30,r16
 5354 2408 F11F      		adc r31,r17
 5355 240a E080      		ld r14,Z
 5356 240c F180      		ldd r15,Z+1
 5357 240e F5E1      		ldi r31,lo8(21)
 5358 2410 EF16      		cp r14,r31
 5359 2412 F104      		cpc r15,__zero_reg__
 5360 2414 01F0      		breq .L301
 5361               	.L238:
 5362               	.LM579:
 5363 2416 87E4      		ldi r24,lo8(71)
 5364 2418 E816      		cp r14,r24
 5365 241a F104      		cpc r15,__zero_reg__
 5366 241c 01F4      		brne .L239
 5367               	.L301:
 5368               	.LM580:
 5369 241e 7093 0000 		sts (x2)+1,r23
 5370 2422 6093 0000 		sts x2,r22
 5371 2426 00C0      		rjmp .L297
 5372               	.L239:
 5373               	.LM581:
 5374 2428 A20F      		add r26,r18
 5375 242a B31F      		adc r27,r19
 5376 242c AA0F      		lsl r26
 5377 242e BB1F      		rol r27
 5378 2430 A00F      		add r26,r16
 5379 2432 B11F      		adc r27,r17
 5380 2434 0D90      		ld __tmp_reg__,X+
 5381 2436 BC91      		ld r27,X
 5382 2438 A02D      		mov r26,__tmp_reg__
 5383 243a A531      		cpi r26,21
 5384 243c B105      		cpc r27,__zero_reg__
 5385 243e 01F0      		breq .L298
 5386               	.L240:
 5387               	.LM582:
 5388 2440 A734      		cpi r26,71
 5389 2442 B105      		cpc r27,__zero_reg__
 5390 2444 01F0      		breq .+2
 5391 2446 00C0      		rjmp .L226
 5392               	.L298:
 5393               	.LM583:
 5394 2448 7093 0000 		sts (x2)+1,r23
 5395 244c 6093 0000 		sts x2,r22
 5396 2450 2091 0000 		lds r18,file
 5397 2454 3091 0000 		lds r19,(file)+1
 5398 2458 A901      		movw r20,r18
 5399 245a 4F5F      		subi r20,lo8(-(1))
 5400 245c 5F4F      		sbci r21,hi8(-(1))
 5401 245e 5093 0000 		sts (x1)+1,r21
 5402 2462 4093 0000 		sts x1,r20
 5403               	.LM584:
 5404 2466 8091 0000 		lds r24,rank
 5405 246a 9091 0000 		lds r25,(rank)+1
 5406 246e 9093 0000 		sts (y2)+1,r25
 5407 2472 8093 0000 		sts y2,r24
 5408 2476 0296      		adiw r24,2
 5409 2478 9093 0000 		sts (y1)+1,r25
 5410 247c 8093 0000 		sts y1,r24
 5411 2480 0297      		sbiw r24,2
 5412               	.LM585:
 5413 2482 F901      		movw r30,r18
 5414 2484 73E0      		ldi r23,3
 5415 2486 EE0F      	1:	lsl r30
 5416 2488 FF1F      		rol r31
 5417 248a 7A95      		dec r23
 5418 248c 01F4      		brne 1b
 5419 248e 220F      		lsl r18
 5420 2490 331F      		rol r19
 5421 2492 E20F      		add r30,r18
 5422 2494 F31F      		adc r31,r19
 5423 2496 E80F      		add r30,r24
 5424 2498 F91F      		adc r31,r25
 5425 249a EE0F      		lsl r30
 5426 249c FF1F      		rol r31
 5427 249e E00F      		add r30,r16
 5428 24a0 F11F      		adc r31,r17
 5429 24a2 B183      		std Z+1,r27
 5430 24a4 A083      		st Z,r26
 5431 24a6 00C0      		rjmp .L280
 5432               	.L224:
 5433               	.LM586:
 5434 24a8 62E0      		ldi r22,lo8(2)
 5435 24aa 70E0      		ldi r23,hi8(2)
 5436 24ac 0E94 0000 		call __divmodhi4
 5437 24b0 5C01      		movw r10,r24
 5438 24b2 8130      		cpi r24,1
 5439 24b4 9105      		cpc r25,__zero_reg__
 5440 24b6 01F0      		breq .+2
 5441 24b8 00C0      		rjmp .L226
 5442               	.LM587:
 5443 24ba 4091 0000 		lds r20,file
 5444 24be 5091 0000 		lds r21,(file)+1
 5445 24c2 BA01      		movw r22,r20
 5446 24c4 6250      		subi r22,lo8(-(-2))
 5447 24c6 7040      		sbci r23,hi8(-(-2))
 5448 24c8 2091 0000 		lds r18,rank
 5449 24cc 3091 0000 		lds r19,(rank)+1
 5450 24d0 6901      		movw r12,r18
 5451 24d2 0894      		sec
 5452 24d4 C108      		sbc r12,__zero_reg__
 5453 24d6 D108      		sbc r13,__zero_reg__
 5454 24d8 8B01      		movw r16,r22
 5455 24da 000F      		lsl r16
 5456 24dc 111F      		rol r17
 5457 24de CB01      		movw r24,r22
 5458 24e0 E3E0      		ldi r30,3
 5459 24e2 880F      	1:	lsl r24
 5460 24e4 991F      		rol r25
 5461 24e6 EA95      		dec r30
 5462 24e8 01F4      		brne 1b
 5463 24ea 080F      		add r16,r24
 5464 24ec 191F      		adc r17,r25
 5465 24ee F801      		movw r30,r16
 5466 24f0 EC0D      		add r30,r12
 5467 24f2 FD1D      		adc r31,r13
 5468 24f4 EE0F      		lsl r30
 5469 24f6 FF1F      		rol r31
 5470 24f8 DE01      		movw r26,r28
 5471 24fa 1196      		adiw r26,1
 5472 24fc EA0F      		add r30,r26
 5473 24fe FB1F      		adc r31,r27
 5474 2500 8081      		ld r24,Z
 5475 2502 9181      		ldd r25,Z+1
 5476 2504 8C31      		cpi r24,28
 5477 2506 9105      		cpc r25,__zero_reg__
 5478 2508 01F0      		breq .L285
 5479               	.L241:
 5480               	.LM588:
 5481 250a 8E34      		cpi r24,78
 5482 250c 9105      		cpc r25,__zero_reg__
 5483 250e 01F0      		breq .L285
 5484               	.L242:
 5485               	.LM589:
 5486 2510 7901      		movw r14,r18
 5487 2512 0894      		sec
 5488 2514 E11C      		adc r14,__zero_reg__
 5489 2516 F11C      		adc r15,__zero_reg__
 5490 2518 F801      		movw r30,r16
 5491 251a EE0D      		add r30,r14
 5492 251c FF1D      		adc r31,r15
 5493 251e EE0F      		lsl r30
 5494 2520 FF1F      		rol r31
 5495 2522 EA0F      		add r30,r26
 5496 2524 FB1F      		adc r31,r27
 5497 2526 8081      		ld r24,Z
 5498 2528 9181      		ldd r25,Z+1
 5499 252a 8C31      		cpi r24,28
 5500 252c 9105      		cpc r25,__zero_reg__
 5501 252e 01F4      		brne .+2
 5502 2530 00C0      		rjmp .L286
 5503               	.L243:
 5504               	.LM590:
 5505 2532 8E34      		cpi r24,78
 5506 2534 9105      		cpc r25,__zero_reg__
 5507 2536 01F4      		brne .+2
 5508 2538 00C0      		rjmp .L286
 5509               	.L244:
 5510               	.LM591:
 5511 253a BA01      		movw r22,r20
 5512 253c 6E5F      		subi r22,lo8(-(2))
 5513 253e 7F4F      		sbci r23,hi8(-(2))
 5514 2540 8B01      		movw r16,r22
 5515 2542 000F      		lsl r16
 5516 2544 111F      		rol r17
 5517 2546 CB01      		movw r24,r22
 5518 2548 E3E0      		ldi r30,3
 5519 254a 880F      	1:	lsl r24
 5520 254c 991F      		rol r25
 5521 254e EA95      		dec r30
 5522 2550 01F4      		brne 1b
 5523 2552 080F      		add r16,r24
 5524 2554 191F      		adc r17,r25
 5525 2556 F801      		movw r30,r16
 5526 2558 EC0D      		add r30,r12
 5527 255a FD1D      		adc r31,r13
 5528 255c EE0F      		lsl r30
 5529 255e FF1F      		rol r31
 5530 2560 EA0F      		add r30,r26
 5531 2562 FB1F      		adc r31,r27
 5532 2564 8081      		ld r24,Z
 5533 2566 9181      		ldd r25,Z+1
 5534 2568 8C31      		cpi r24,28
 5535 256a 9105      		cpc r25,__zero_reg__
 5536 256c 01F0      		breq .L285
 5537               	.L245:
 5538               	.LM592:
 5539 256e 8E34      		cpi r24,78
 5540 2570 9105      		cpc r25,__zero_reg__
 5541 2572 01F4      		brne .L246
 5542               	.L285:
 5543               	.LM593:
 5544 2574 5093 0000 		sts (x2)+1,r21
 5545 2578 4093 0000 		sts x2,r20
 5546 257c 7093 0000 		sts (x1)+1,r23
 5547 2580 6093 0000 		sts x1,r22
 5548               	.LM594:
 5549 2584 3093 0000 		sts (y2)+1,r19
 5550 2588 2093 0000 		sts y2,r18
 5551 258c D092 0000 		sts (y1)+1,r13
 5552 2590 C092 0000 		sts y1,r12
 5553               	.LM595:
 5554 2594 FA01      		movw r30,r20
 5555 2596 73E0      		ldi r23,3
 5556 2598 EE0F      	1:	lsl r30
 5557 259a FF1F      		rol r31
 5558 259c 7A95      		dec r23
 5559 259e 01F4      		brne 1b
 5560 25a0 440F      		lsl r20
 5561 25a2 551F      		rol r21
 5562 25a4 E40F      		add r30,r20
 5563 25a6 F51F      		adc r31,r21
 5564 25a8 E20F      		add r30,r18
 5565 25aa F31F      		adc r31,r19
 5566 25ac EE0F      		lsl r30
 5567 25ae FF1F      		rol r31
 5568 25b0 EA0F      		add r30,r26
 5569 25b2 FB1F      		adc r31,r27
 5570 25b4 9183      		std Z+1,r25
 5571 25b6 8083      		st Z,r24
 5572               	.LM596:
 5573 25b8 200F      		add r18,r16
 5574 25ba 311F      		adc r19,r17
 5575 25bc 2A19      		sub r18,r10
 5576 25be 3B09      		sbc r19,r11
 5577 25c0 00C0      		rjmp .L284
 5578               	.L246:
 5579               	.LM597:
 5580 25c2 F801      		movw r30,r16
 5581 25c4 EE0D      		add r30,r14
 5582 25c6 FF1D      		adc r31,r15
 5583 25c8 EE0F      		lsl r30
 5584 25ca FF1F      		rol r31
 5585 25cc EA0F      		add r30,r26
 5586 25ce FB1F      		adc r31,r27
 5587 25d0 8081      		ld r24,Z
 5588 25d2 9181      		ldd r25,Z+1
 5589 25d4 8C31      		cpi r24,28
 5590 25d6 9105      		cpc r25,__zero_reg__
 5591 25d8 01F4      		brne .L247
 5592               	.L286:
 5593               	.LM598:
 5594 25da 5093 0000 		sts (x2)+1,r21
 5595 25de 4093 0000 		sts x2,r20
 5596 25e2 7093 0000 		sts (x1)+1,r23
 5597 25e6 6093 0000 		sts x1,r22
 5598               	.LM599:
 5599 25ea 3093 0000 		sts (y2)+1,r19
 5600 25ee 2093 0000 		sts y2,r18
 5601 25f2 F092 0000 		sts (y1)+1,r15
 5602 25f6 E092 0000 		sts y1,r14
 5603               	.LM600:
 5604 25fa FA01      		movw r30,r20
 5605 25fc 73E0      		ldi r23,3
 5606 25fe EE0F      	1:	lsl r30
 5607 2600 FF1F      		rol r31
 5608 2602 7A95      		dec r23
 5609 2604 01F4      		brne 1b
 5610 2606 440F      		lsl r20
 5611 2608 551F      		rol r21
 5612 260a E40F      		add r30,r20
 5613 260c F51F      		adc r31,r21
 5614 260e E20F      		add r30,r18
 5615 2610 F31F      		adc r31,r19
 5616 2612 EE0F      		lsl r30
 5617 2614 FF1F      		rol r31
 5618 2616 EA0F      		add r30,r26
 5619 2618 FB1F      		adc r31,r27
 5620 261a 9183      		std Z+1,r25
 5621 261c 8083      		st Z,r24
 5622               	.LM601:
 5623 261e 200F      		add r18,r16
 5624 2620 311F      		adc r19,r17
 5625 2622 2F5F      		subi r18,lo8(-(1))
 5626 2624 3F4F      		sbci r19,hi8(-(1))
 5627               	.L284:
 5628 2626 220F      		lsl r18
 5629 2628 331F      		rol r19
 5630 262a A20F      		add r26,r18
 5631 262c B31F      		adc r27,r19
 5632 262e 00C0      		rjmp .L282
 5633               	.L247:
 5634 2630 8D01      		movw r16,r26
 5635               	.LM602:
 5636 2632 8E34      		cpi r24,78
 5637 2634 9105      		cpc r25,__zero_reg__
 5638 2636 01F0      		breq .+2
 5639 2638 00C0      		rjmp .L248
 5640               	.LM603:
 5641 263a 5093 0000 		sts (x2)+1,r21
 5642 263e 4093 0000 		sts x2,r20
 5643 2642 8091 0000 		lds r24,file
 5644 2646 9091 0000 		lds r25,(file)+1
 5645 264a AC01      		movw r20,r24
 5646 264c 4E5F      		subi r20,lo8(-(2))
 5647 264e 5F4F      		sbci r21,hi8(-(2))
 5648 2650 5093 0000 		sts (x1)+1,r21
 5649 2654 4093 0000 		sts x1,r20
 5650               	.LM604:
 5651 2658 2091 0000 		lds r18,rank
 5652 265c 3091 0000 		lds r19,(rank)+1
 5653 2660 3093 0000 		sts (y2)+1,r19
 5654 2664 2093 0000 		sts y2,r18
 5655 2668 2F5F      		subi r18,lo8(-(1))
 5656 266a 3F4F      		sbci r19,hi8(-(1))
 5657 266c 3093 0000 		sts (y1)+1,r19
 5658 2670 2093 0000 		sts y1,r18
 5659 2674 2150      		subi r18,lo8(-(-1))
 5660 2676 3040      		sbci r19,hi8(-(-1))
 5661               	.LM605:
 5662 2678 FC01      		movw r30,r24
 5663 267a 73E0      		ldi r23,3
 5664 267c EE0F      	1:	lsl r30
 5665 267e FF1F      		rol r31
 5666 2680 7A95      		dec r23
 5667 2682 01F4      		brne 1b
 5668 2684 880F      		lsl r24
 5669 2686 991F      		rol r25
 5670 2688 E80F      		add r30,r24
 5671 268a F91F      		adc r31,r25
 5672 268c E20F      		add r30,r18
 5673 268e F31F      		adc r31,r19
 5674 2690 EE0F      		lsl r30
 5675 2692 FF1F      		rol r31
 5676 2694 EA0F      		add r30,r26
 5677 2696 FB1F      		adc r31,r27
 5678 2698 8EE4      		ldi r24,lo8(78)
 5679 269a 90E0      		ldi r25,hi8(78)
 5680 269c 9183      		std Z+1,r25
 5681 269e 8083      		st Z,r24
 5682               	.LM606:
 5683 26a0 FA01      		movw r30,r20
 5684 26a2 B3E0      		ldi r27,3
 5685 26a4 EE0F      	1:	lsl r30
 5686 26a6 FF1F      		rol r31
 5687 26a8 BA95      		dec r27
 5688 26aa 01F4      		brne 1b
 5689 26ac 440F      		lsl r20
 5690 26ae 551F      		rol r21
 5691 26b0 E40F      		add r30,r20
 5692 26b2 F51F      		adc r31,r21
 5693 26b4 E20F      		add r30,r18
 5694 26b6 F31F      		adc r31,r19
 5695 26b8 3196      		adiw r30,1
 5696 26ba 00C0      		rjmp .L281
 5697               	.L248:
 5698               	.LM607:
 5699 26bc CA01      		movw r24,r20
 5700 26be 0197      		sbiw r24,1
 5701 26c0 D901      		movw r26,r18
 5702 26c2 1297      		sbiw r26,2
 5703 26c4 7C01      		movw r14,r24
 5704 26c6 73E0      		ldi r23,3
 5705 26c8 EE0C      	1:	lsl r14
 5706 26ca FF1C      		rol r15
 5707 26cc 7A95      		dec r23
 5708 26ce 01F4      		brne 1b
 5709 26d0 880F      		lsl r24
 5710 26d2 991F      		rol r25
 5711 26d4 E80E      		add r14,r24
 5712 26d6 F91E      		adc r15,r25
 5713 26d8 F701      		movw r30,r14
 5714 26da EA0F      		add r30,r26
 5715 26dc FB1F      		adc r31,r27
 5716 26de EE0F      		lsl r30
 5717 26e0 FF1F      		rol r31
 5718 26e2 E00F      		add r30,r16
 5719 26e4 F11F      		adc r31,r17
 5720 26e6 6081      		ld r22,Z
 5721 26e8 7181      		ldd r23,Z+1
 5722 26ea 6C31      		cpi r22,28
 5723 26ec 7105      		cpc r23,__zero_reg__
 5724 26ee 01F0      		breq .L296
 5725               	.L249:
 5726               	.LM608:
 5727 26f0 6E34      		cpi r22,78
 5728 26f2 7105      		cpc r23,__zero_reg__
 5729 26f4 01F4      		brne .L250
 5730               	.L296:
 5731               	.LM609:
 5732 26f6 5093 0000 		sts (x2)+1,r21
 5733 26fa 4093 0000 		sts x2,r20
 5734 26fe 2091 0000 		lds r18,file
 5735 2702 3091 0000 		lds r19,(file)+1
 5736 2706 A901      		movw r20,r18
 5737 2708 4150      		subi r20,lo8(-(-1))
 5738 270a 5040      		sbci r21,hi8(-(-1))
 5739 270c 5093 0000 		sts (x1)+1,r21
 5740 2710 4093 0000 		sts x1,r20
 5741               	.LM610:
 5742 2714 8091 0000 		lds r24,rank
 5743 2718 9091 0000 		lds r25,(rank)+1
 5744 271c 9093 0000 		sts (y2)+1,r25
 5745 2720 8093 0000 		sts y2,r24
 5746 2724 0297      		sbiw r24,2
 5747 2726 9093 0000 		sts (y1)+1,r25
 5748 272a 8093 0000 		sts y1,r24
 5749 272e 0296      		adiw r24,2
 5750               	.LM611:
 5751 2730 F901      		movw r30,r18
 5752 2732 A3E0      		ldi r26,3
 5753 2734 EE0F      	1:	lsl r30
 5754 2736 FF1F      		rol r31
 5755 2738 AA95      		dec r26
 5756 273a 01F4      		brne 1b
 5757 273c 220F      		lsl r18
 5758 273e 331F      		rol r19
 5759 2740 E20F      		add r30,r18
 5760 2742 F31F      		adc r31,r19
 5761 2744 E80F      		add r30,r24
 5762 2746 F91F      		adc r31,r25
 5763 2748 EE0F      		lsl r30
 5764 274a FF1F      		rol r31
 5765 274c E00F      		add r30,r16
 5766 274e F11F      		adc r31,r17
 5767 2750 7183      		std Z+1,r23
 5768 2752 6083      		st Z,r22
 5769 2754 00C0      		rjmp .L290
 5770               	.L250:
 5771               	.LM612:
 5772 2756 CA01      		movw r24,r20
 5773 2758 0196      		adiw r24,1
 5774 275a BC01      		movw r22,r24
 5775 275c E3E0      		ldi r30,3
 5776 275e 660F      	1:	lsl r22
 5777 2760 771F      		rol r23
 5778 2762 EA95      		dec r30
 5779 2764 01F4      		brne 1b
 5780 2766 880F      		lsl r24
 5781 2768 991F      		rol r25
 5782 276a 680F      		add r22,r24
 5783 276c 791F      		adc r23,r25
 5784 276e A60F      		add r26,r22
 5785 2770 B71F      		adc r27,r23
 5786 2772 AA0F      		lsl r26
 5787 2774 BB1F      		rol r27
 5788 2776 A00F      		add r26,r16
 5789 2778 B11F      		adc r27,r17
 5790 277a 0D90      		ld __tmp_reg__,X+
 5791 277c BC91      		ld r27,X
 5792 277e A02D      		mov r26,__tmp_reg__
 5793 2780 AC31      		cpi r26,28
 5794 2782 B105      		cpc r27,__zero_reg__
 5795 2784 01F0      		breq .L288
 5796               	.L251:
 5797               	.LM613:
 5798 2786 AE34      		cpi r26,78
 5799 2788 B105      		cpc r27,__zero_reg__
 5800 278a 01F4      		brne .L252
 5801               	.L288:
 5802               	.LM614:
 5803 278c 5093 0000 		sts (x2)+1,r21
 5804 2790 4093 0000 		sts x2,r20
 5805               	.L295:
 5806 2794 2091 0000 		lds r18,file
 5807 2798 3091 0000 		lds r19,(file)+1
 5808 279c A901      		movw r20,r18
 5809 279e 4F5F      		subi r20,lo8(-(1))
 5810 27a0 5F4F      		sbci r21,hi8(-(1))
 5811               	.L289:
 5812 27a2 5093 0000 		sts (x1)+1,r21
 5813 27a6 4093 0000 		sts x1,r20
 5814               	.LM615:
 5815 27aa 8091 0000 		lds r24,rank
 5816 27ae 9091 0000 		lds r25,(rank)+1
 5817 27b2 9093 0000 		sts (y2)+1,r25
 5818 27b6 8093 0000 		sts y2,r24
 5819 27ba 0297      		sbiw r24,2
 5820 27bc 9093 0000 		sts (y1)+1,r25
 5821 27c0 8093 0000 		sts y1,r24
 5822 27c4 0296      		adiw r24,2
 5823               	.LM616:
 5824 27c6 F901      		movw r30,r18
 5825 27c8 63E0      		ldi r22,3
 5826 27ca EE0F      	1:	lsl r30
 5827 27cc FF1F      		rol r31
 5828 27ce 6A95      		dec r22
 5829 27d0 01F4      		brne 1b
 5830 27d2 220F      		lsl r18
 5831 27d4 331F      		rol r19
 5832 27d6 E20F      		add r30,r18
 5833 27d8 F31F      		adc r31,r19
 5834 27da E80F      		add r30,r24
 5835 27dc F91F      		adc r31,r25
 5836 27de EE0F      		lsl r30
 5837 27e0 FF1F      		rol r31
 5838 27e2 E00F      		add r30,r16
 5839 27e4 F11F      		adc r31,r17
 5840 27e6 B183      		std Z+1,r27
 5841 27e8 A083      		st Z,r26
 5842               	.L290:
 5843               	.LM617:
 5844 27ea FA01      		movw r30,r20
 5845 27ec 33E0      		ldi r19,3
 5846 27ee EE0F      	1:	lsl r30
 5847 27f0 FF1F      		rol r31
 5848 27f2 3A95      		dec r19
 5849 27f4 01F4      		brne 1b
 5850 27f6 440F      		lsl r20
 5851 27f8 551F      		rol r21
 5852 27fa E40F      		add r30,r20
 5853 27fc F51F      		adc r31,r21
 5854 27fe E80F      		add r30,r24
 5855 2800 F91F      		adc r31,r25
 5856 2802 3297      		sbiw r30,2
 5857 2804 00C0      		rjmp .L281
 5858               	.L252:
 5859               	.LM618:
 5860 2806 D901      		movw r26,r18
 5861 2808 1296      		adiw r26,2
 5862 280a F701      		movw r30,r14
 5863 280c EA0F      		add r30,r26
 5864 280e FB1F      		adc r31,r27
 5865 2810 EE0F      		lsl r30
 5866 2812 FF1F      		rol r31
 5867 2814 E00F      		add r30,r16
 5868 2816 F11F      		adc r31,r17
 5869 2818 E080      		ld r14,Z
 5870 281a F180      		ldd r15,Z+1
 5871 281c FCE1      		ldi r31,lo8(28)
 5872 281e EF16      		cp r14,r31
 5873 2820 F104      		cpc r15,__zero_reg__
 5874 2822 01F0      		breq .L287
 5875               	.L253:
 5876               	.LM619:
 5877 2824 8EE4      		ldi r24,lo8(78)
 5878 2826 E816      		cp r14,r24
 5879 2828 F104      		cpc r15,__zero_reg__
 5880 282a 01F4      		brne .L254
 5881               	.L287:
 5882               	.LM620:
 5883 282c 5093 0000 		sts (x2)+1,r21
 5884 2830 4093 0000 		sts x2,r20
 5885               	.L297:
 5886 2834 2091 0000 		lds r18,file
 5887 2838 3091 0000 		lds r19,(file)+1
 5888 283c A901      		movw r20,r18
 5889 283e 4150      		subi r20,lo8(-(-1))
 5890 2840 5040      		sbci r21,hi8(-(-1))
 5891 2842 5093 0000 		sts (x1)+1,r21
 5892 2846 4093 0000 		sts x1,r20
 5893               	.LM621:
 5894 284a 8091 0000 		lds r24,rank
 5895 284e 9091 0000 		lds r25,(rank)+1
 5896 2852 9093 0000 		sts (y2)+1,r25
 5897 2856 8093 0000 		sts y2,r24
 5898 285a 0296      		adiw r24,2
 5899 285c 9093 0000 		sts (y1)+1,r25
 5900 2860 8093 0000 		sts y1,r24
 5901 2864 0297      		sbiw r24,2
 5902               	.LM622:
 5903 2866 F901      		movw r30,r18
 5904 2868 73E0      		ldi r23,3
 5905 286a EE0F      	1:	lsl r30
 5906 286c FF1F      		rol r31
 5907 286e 7A95      		dec r23
 5908 2870 01F4      		brne 1b
 5909 2872 220F      		lsl r18
 5910 2874 331F      		rol r19
 5911 2876 E20F      		add r30,r18
 5912 2878 F31F      		adc r31,r19
 5913 287a E80F      		add r30,r24
 5914 287c F91F      		adc r31,r25
 5915 287e EE0F      		lsl r30
 5916 2880 FF1F      		rol r31
 5917 2882 E00F      		add r30,r16
 5918 2884 F11F      		adc r31,r17
 5919 2886 F182      		std Z+1,r15
 5920 2888 E082      		st Z,r14
 5921 288a 00C0      		rjmp .L280
 5922               	.L254:
 5923               	.LM623:
 5924 288c A60F      		add r26,r22
 5925 288e B71F      		adc r27,r23
 5926 2890 AA0F      		lsl r26
 5927 2892 BB1F      		rol r27
 5928 2894 A00F      		add r26,r16
 5929 2896 B11F      		adc r27,r17
 5930 2898 6D91      		ld r22,X+
 5931 289a 7C91      		ld r23,X
 5932 289c 6C31      		cpi r22,28
 5933 289e 7105      		cpc r23,__zero_reg__
 5934 28a0 01F0      		breq .L278
 5935               	.L255:
 5936               	.LM624:
 5937 28a2 6E34      		cpi r22,78
 5938 28a4 7105      		cpc r23,__zero_reg__
 5939 28a6 01F0      		breq .+2
 5940 28a8 00C0      		rjmp .L226
 5941               	.L278:
 5942               	.LM625:
 5943 28aa 5093 0000 		sts (x2)+1,r21
 5944 28ae 4093 0000 		sts x2,r20
 5945 28b2 2091 0000 		lds r18,file
 5946 28b6 3091 0000 		lds r19,(file)+1
 5947 28ba A901      		movw r20,r18
 5948 28bc 4F5F      		subi r20,lo8(-(1))
 5949 28be 5F4F      		sbci r21,hi8(-(1))
 5950 28c0 5093 0000 		sts (x1)+1,r21
 5951 28c4 4093 0000 		sts x1,r20
 5952               	.LM626:
 5953 28c8 8091 0000 		lds r24,rank
 5954 28cc 9091 0000 		lds r25,(rank)+1
 5955 28d0 9093 0000 		sts (y2)+1,r25
 5956 28d4 8093 0000 		sts y2,r24
 5957 28d8 0296      		adiw r24,2
 5958 28da 9093 0000 		sts (y1)+1,r25
 5959 28de 8093 0000 		sts y1,r24
 5960 28e2 0297      		sbiw r24,2
 5961               	.LM627:
 5962 28e4 F901      		movw r30,r18
 5963 28e6 B3E0      		ldi r27,3
 5964 28e8 EE0F      	1:	lsl r30
 5965 28ea FF1F      		rol r31
 5966 28ec BA95      		dec r27
 5967 28ee 01F4      		brne 1b
 5968 28f0 220F      		lsl r18
 5969 28f2 331F      		rol r19
 5970 28f4 E20F      		add r30,r18
 5971 28f6 F31F      		adc r31,r19
 5972 28f8 E80F      		add r30,r24
 5973 28fa F91F      		adc r31,r25
 5974 28fc EE0F      		lsl r30
 5975 28fe FF1F      		rol r31
 5976 2900 E00F      		add r30,r16
 5977 2902 F11F      		adc r31,r17
 5978 2904 7183      		std Z+1,r23
 5979 2906 6083      		st Z,r22
 5980               	.L280:
 5981               	.LM628:
 5982 2908 FA01      		movw r30,r20
 5983 290a 23E0      		ldi r18,3
 5984 290c EE0F      	1:	lsl r30
 5985 290e FF1F      		rol r31
 5986 2910 2A95      		dec r18
 5987 2912 01F4      		brne 1b
 5988 2914 440F      		lsl r20
 5989 2916 551F      		rol r21
 5990 2918 E40F      		add r30,r20
 5991 291a F51F      		adc r31,r21
 5992 291c E80F      		add r30,r24
 5993 291e F91F      		adc r31,r25
 5994 2920 3296      		adiw r30,2
 5995               	.L281:
 5996 2922 EE0F      		lsl r30
 5997 2924 FF1F      		rol r31
 5998 2926 E00F      		add r30,r16
 5999 2928 F11F      		adc r31,r17
 6000 292a 1182      		std Z+1,__zero_reg__
 6001 292c 1082      		st Z,__zero_reg__
 6002               	.L226:
 6003               	.LM629:
 6004 292e 81E0      		ldi r24,lo8(1)
 6005 2930 60E0      		ldi r22,lo8(0)
 6006 2932 0E94 0000 		call lcd_byte
 6007 2936 00C0      		rjmp .L192
 6008               	.L194:
 6009               	.LM630:
 6010 2938 8530      		cpi r24,5
 6011 293a 9105      		cpc r25,__zero_reg__
 6012 293c 01F0      		breq .+2
 6013 293e 00C0      		rjmp .L256
 6014               	.LM631:
 6015 2940 8091 0000 		lds r24,letter
 6016 2944 9091 0000 		lds r25,(letter)+1
 6017 2948 892B      		or r24,r25
 6018 294a 01F0      		breq .+2
 6019 294c 00C0      		rjmp .L257
 6020               	.LM632:
 6021 294e 81E0      		ldi r24,lo8(1)
 6022 2950 90E0      		ldi r25,hi8(1)
 6023 2952 9093 0000 		sts (hrook)+1,r25
 6024 2956 8093 0000 		sts hrook,r24
 6025               	.LM633:
 6026 295a 8091 0000 		lds r24,file
 6027 295e 9091 0000 		lds r25,(file)+1
 6028 2962 9093 0000 		sts (x2)+1,r25
 6029 2966 8093 0000 		sts x2,r24
 6030 296a 2091 0000 		lds r18,rank
 6031 296e 3091 0000 		lds r19,(rank)+1
 6032 2972 3093 0000 		sts (y2)+1,r19
 6033 2976 2093 0000 		sts y2,r18
 6034               	.LM634:
 6035 297a 8091 0000 		lds r24,file0
 6036 297e 9091 0000 		lds r25,(file0)+1
 6037 2982 9093 0000 		sts (x1)+1,r25
 6038 2986 8093 0000 		sts x1,r24
 6039 298a 4091 0000 		lds r20,rank0
 6040 298e 5091 0000 		lds r21,(rank0)+1
 6041 2992 5093 0000 		sts (y1)+1,r21
 6042 2996 4093 0000 		sts y1,r20
 6043               	.LM635:
 6044 299a 6091 0000 		lds r22,file0
 6045 299e 7091 0000 		lds r23,file0+1
 6046 29a2 8091 0000 		lds r24,file
 6047 29a6 9091 0000 		lds r25,file+1
 6048 29aa DC01      		movw r26,r24
 6049 29ac E3E0      		ldi r30,3
 6050 29ae AA0F      	1:	lsl r26
 6051 29b0 BB1F      		rol r27
 6052 29b2 EA95      		dec r30
 6053 29b4 01F4      		brne 1b
 6054 29b6 880F      		lsl r24
 6055 29b8 991F      		rol r25
 6056 29ba A80F      		add r26,r24
 6057 29bc B91F      		adc r27,r25
 6058 29be A20F      		add r26,r18
 6059 29c0 B31F      		adc r27,r19
 6060 29c2 AA0F      		lsl r26
 6061 29c4 BB1F      		rol r27
 6062 29c6 A00F      		add r26,r16
 6063 29c8 B11F      		adc r27,r17
 6064 29ca CB01      		movw r24,r22
 6065 29cc FC01      		movw r30,r24
 6066 29ce 33E0      		ldi r19,3
 6067 29d0 EE0F      	1:	lsl r30
 6068 29d2 FF1F      		rol r31
 6069 29d4 3A95      		dec r19
 6070 29d6 01F4      		brne 1b
 6071 29d8 880F      		lsl r24
 6072 29da 991F      		rol r25
 6073 29dc E80F      		add r30,r24
 6074 29de F91F      		adc r31,r25
 6075 29e0 E40F      		add r30,r20
 6076 29e2 F51F      		adc r31,r21
 6077 29e4 EE0F      		lsl r30
 6078 29e6 FF1F      		rol r31
 6079 29e8 E00F      		add r30,r16
 6080 29ea F11F      		adc r31,r17
 6081 29ec 8081      		ld r24,Z
 6082 29ee 9181      		ldd r25,Z+1
 6083 29f0 8D93      		st X+,r24
 6084 29f2 9C93      		st X,r25
 6085               	.LM636:
 6086 29f4 CB01      		movw r24,r22
 6087 29f6 9C01      		movw r18,r24
 6088 29f8 B3E0      		ldi r27,3
 6089 29fa 220F      	1:	lsl r18
 6090 29fc 331F      		rol r19
 6091 29fe BA95      		dec r27
 6092 2a00 01F4      		brne 1b
 6093 2a02 880F      		lsl r24
 6094 2a04 991F      		rol r25
 6095 2a06 280F      		add r18,r24
 6096 2a08 391F      		adc r19,r25
 6097 2a0a 240F      		add r18,r20
 6098 2a0c 351F      		adc r19,r21
 6099 2a0e 220F      		lsl r18
 6100 2a10 331F      		rol r19
 6101 2a12 020F      		add r16,r18
 6102 2a14 131F      		adc r17,r19
 6103 2a16 F801      		movw r30,r16
 6104 2a18 1182      		std Z+1,__zero_reg__
 6105 2a1a 1082      		st Z,__zero_reg__
 6106               	.L257:
 6107               	.LM637:
 6108 2a1c 8091 0000 		lds r24,letter
 6109 2a20 9091 0000 		lds r25,(letter)+1
 6110 2a24 0497      		sbiw r24,4
 6111 2a26 01F0      		breq .+2
 6112 2a28 00C0      		rjmp .L192
 6113 2a2a 00C0      		rjmp .L274
 6114               	.L256:
 6115               	.LM638:
 6116 2a2c 8430      		cpi r24,4
 6117 2a2e 9105      		cpc r25,__zero_reg__
 6118 2a30 01F0      		breq .+2
 6119 2a32 00C0      		rjmp .L258
 6120               	.LM639:
 6121 2a34 2091 0000 		lds r18,letter
 6122 2a38 3091 0000 		lds r19,(letter)+1
 6123 2a3c 2115      		cp r18,__zero_reg__
 6124 2a3e 3105      		cpc r19,__zero_reg__
 6125 2a40 01F4      		brne .L259
 6126               	.LM640:
 6127 2a42 8091 0000 		lds r24,moves
 6128 2a46 9091 0000 		lds r25,moves+1
 6129 2a4a 80FD      		sbrc r24,0
 6130 2a4c 00C0      		rjmp .L260
 6131               	.LM641:
 6132 2a4e 81E0      		ldi r24,lo8(1)
 6133 2a50 90E0      		ldi r25,hi8(1)
 6134 2a52 9093 0000 		sts (kill_black)+1,r25
 6135 2a56 8093 0000 		sts kill_black,r24
 6136 2a5a 0C94 0000 		jmp .L196
 6137               	.L260:
 6138               	.LM642:
 6139 2a5e 62E0      		ldi r22,lo8(2)
 6140 2a60 70E0      		ldi r23,hi8(2)
 6141 2a62 0E94 0000 		call __divmodhi4
 6142 2a66 8130      		cpi r24,1
 6143 2a68 9105      		cpc r25,__zero_reg__
 6144 2a6a 01F0      		breq .+4
 6145 2a6c 0C94 0000 		jmp .L196
 6146               	.LM643:
 6147 2a70 9093 0000 		sts (kill_white)+1,r25
 6148 2a74 8093 0000 		sts kill_white,r24
 6149 2a78 0C94 0000 		jmp .L196
 6150               	.L259:
 6151               	.LM644:
 6152 2a7c 2130      		cpi r18,1
 6153 2a7e 3105      		cpc r19,__zero_reg__
 6154 2a80 01F4      		brne .L261
 6155               	.LM645:
 6156 2a82 8091 0000 		lds r24,moves
 6157 2a86 9091 0000 		lds r25,moves+1
 6158 2a8a 80FD      		sbrc r24,0
 6159 2a8c 00C0      		rjmp .L262
 6160               	.LM646:
 6161 2a8e 3093 0000 		sts (kill_black)+1,r19
 6162 2a92 2093 0000 		sts kill_black,r18
 6163 2a96 0C94 0000 		jmp .L205
 6164               	.L262:
 6165               	.LM647:
 6166 2a9a 62E0      		ldi r22,lo8(2)
 6167 2a9c 70E0      		ldi r23,hi8(2)
 6168 2a9e 0E94 0000 		call __divmodhi4
 6169 2aa2 8130      		cpi r24,1
 6170 2aa4 9105      		cpc r25,__zero_reg__
 6171 2aa6 01F0      		breq .+4
 6172 2aa8 0C94 0000 		jmp .L205
 6173               	.LM648:
 6174 2aac 9093 0000 		sts (kill_white)+1,r25
 6175 2ab0 8093 0000 		sts kill_white,r24
 6176 2ab4 0C94 0000 		jmp .L205
 6177               	.L261:
 6178               	.LM649:
 6179 2ab8 2230      		cpi r18,2
 6180 2aba 3105      		cpc r19,__zero_reg__
 6181 2abc 01F4      		brne .L263
 6182               	.LM650:
 6183 2abe 8091 0000 		lds r24,moves
 6184 2ac2 9091 0000 		lds r25,moves+1
 6185 2ac6 80FD      		sbrc r24,0
 6186 2ac8 00C0      		rjmp .L264
 6187               	.LM651:
 6188 2aca 81E0      		ldi r24,lo8(1)
 6189 2acc 90E0      		ldi r25,hi8(1)
 6190 2ace 9093 0000 		sts (kill_black)+1,r25
 6191 2ad2 8093 0000 		sts kill_black,r24
 6192 2ad6 0C94 0000 		jmp .L210
 6193               	.L264:
 6194               	.LM652:
 6195 2ada 62E0      		ldi r22,lo8(2)
 6196 2adc 70E0      		ldi r23,hi8(2)
 6197 2ade 0E94 0000 		call __divmodhi4
 6198 2ae2 0197      		sbiw r24,1
 6199 2ae4 01F0      		breq .+4
 6200 2ae6 0C94 0000 		jmp .L210
 6201               	.LM653:
 6202 2aea 81E0      		ldi r24,lo8(1)
 6203 2aec 90E0      		ldi r25,hi8(1)
 6204 2aee 9093 0000 		sts (kill_white)+1,r25
 6205 2af2 8093 0000 		sts kill_white,r24
 6206 2af6 0C94 0000 		jmp .L210
 6207               	.L263:
 6208               	.LM654:
 6209 2afa 2330      		cpi r18,3
 6210 2afc 3105      		cpc r19,__zero_reg__
 6211 2afe 01F4      		brne .L265
 6212               	.LM655:
 6213 2b00 8091 0000 		lds r24,moves
 6214 2b04 9091 0000 		lds r25,moves+1
 6215 2b08 80FD      		sbrc r24,0
 6216 2b0a 00C0      		rjmp .L266
 6217               	.LM656:
 6218 2b0c 81E0      		ldi r24,lo8(1)
 6219 2b0e 90E0      		ldi r25,hi8(1)
 6220 2b10 9093 0000 		sts (kill_black)+1,r25
 6221 2b14 8093 0000 		sts kill_black,r24
 6222 2b18 00C0      		rjmp .L217
 6223               	.L266:
 6224               	.LM657:
 6225 2b1a 62E0      		ldi r22,lo8(2)
 6226 2b1c 70E0      		ldi r23,hi8(2)
 6227 2b1e 0E94 0000 		call __divmodhi4
 6228 2b22 8130      		cpi r24,1
 6229 2b24 9105      		cpc r25,__zero_reg__
 6230 2b26 01F0      		breq .+2
 6231 2b28 00C0      		rjmp .L217
 6232               	.LM658:
 6233 2b2a 9093 0000 		sts (kill_white)+1,r25
 6234 2b2e 8093 0000 		sts kill_white,r24
 6235 2b32 00C0      		rjmp .L217
 6236               	.L265:
 6237 2b34 8091 0000 		lds r24,moves
 6238 2b38 9091 0000 		lds r25,moves+1
 6239               	.LM659:
 6240 2b3c 2430      		cpi r18,4
 6241 2b3e 3105      		cpc r19,__zero_reg__
 6242 2b40 01F4      		brne .L267
 6243               	.LM660:
 6244 2b42 80FD      		sbrc r24,0
 6245 2b44 00C0      		rjmp .L268
 6246               	.LM661:
 6247 2b46 81E0      		ldi r24,lo8(1)
 6248 2b48 90E0      		ldi r25,hi8(1)
 6249 2b4a 9093 0000 		sts (kill_black)+1,r25
 6250 2b4e 8093 0000 		sts kill_black,r24
 6251 2b52 00C0      		rjmp .L223
 6252               	.L268:
 6253               	.LM662:
 6254 2b54 62E0      		ldi r22,lo8(2)
 6255 2b56 70E0      		ldi r23,hi8(2)
 6256 2b58 0E94 0000 		call __divmodhi4
 6257 2b5c 8130      		cpi r24,1
 6258 2b5e 9105      		cpc r25,__zero_reg__
 6259 2b60 01F0      		breq .+2
 6260 2b62 00C0      		rjmp .L223
 6261               	.LM663:
 6262 2b64 9093 0000 		sts (kill_white)+1,r25
 6263 2b68 8093 0000 		sts kill_white,r24
 6264 2b6c 00C0      		rjmp .L223
 6265               	.L267:
 6266               	.LM664:
 6267 2b6e 21E0      		ldi r18,lo8(1)
 6268 2b70 30E0      		ldi r19,hi8(1)
 6269 2b72 3093 0000 		sts (bishop)+1,r19
 6270 2b76 2093 0000 		sts bishop,r18
 6271               	.LM665:
 6272 2b7a 80FD      		sbrc r24,0
 6273 2b7c 00C0      		rjmp .L269
 6274               	.LM666:
 6275 2b7e 3093 0000 		sts (kill_black)+1,r19
 6276 2b82 2093 0000 		sts kill_black,r18
 6277               	.LM667:
 6278 2b86 8091 0000 		lds r24,file
 6279 2b8a 9091 0000 		lds r25,(file)+1
 6280 2b8e 9093 0000 		sts (x2)+1,r25
 6281 2b92 8093 0000 		sts x2,r24
 6282 2b96 2091 0000 		lds r18,rank
 6283 2b9a 3091 0000 		lds r19,(rank)+1
 6284 2b9e 3093 0000 		sts (y2)+1,r19
 6285 2ba2 2093 0000 		sts y2,r18
 6286               	.LM668:
 6287 2ba6 8091 0000 		lds r24,letter
 6288 2baa 9091 0000 		lds r25,(letter)+1
 6289 2bae 9093 0000 		sts (x1)+1,r25
 6290 2bb2 8093 0000 		sts x1,r24
 6291 2bb6 B901      		movw r22,r18
 6292 2bb8 6150      		subi r22,lo8(-(-1))
 6293 2bba 7040      		sbci r23,hi8(-(-1))
 6294 2bbc 00C0      		rjmp .L299
 6295               	.L269:
 6296               	.LM669:
 6297 2bbe 62E0      		ldi r22,lo8(2)
 6298 2bc0 70E0      		ldi r23,hi8(2)
 6299 2bc2 0E94 0000 		call __divmodhi4
 6300 2bc6 8130      		cpi r24,1
 6301 2bc8 9105      		cpc r25,__zero_reg__
 6302 2bca 01F0      		breq .+2
 6303 2bcc 00C0      		rjmp .L192
 6304               	.LM670:
 6305 2bce 9093 0000 		sts (kill_white)+1,r25
 6306 2bd2 8093 0000 		sts kill_white,r24
 6307               	.LM671:
 6308 2bd6 8091 0000 		lds r24,file
 6309 2bda 9091 0000 		lds r25,(file)+1
 6310 2bde 9093 0000 		sts (x2)+1,r25
 6311 2be2 8093 0000 		sts x2,r24
 6312 2be6 2091 0000 		lds r18,rank
 6313 2bea 3091 0000 		lds r19,(rank)+1
 6314 2bee 3093 0000 		sts (y2)+1,r19
 6315 2bf2 2093 0000 		sts y2,r18
 6316               	.LM672:
 6317 2bf6 8091 0000 		lds r24,letter
 6318 2bfa 9091 0000 		lds r25,(letter)+1
 6319 2bfe 9093 0000 		sts (x1)+1,r25
 6320 2c02 8093 0000 		sts x1,r24
 6321 2c06 B901      		movw r22,r18
 6322 2c08 6F5F      		subi r22,lo8(-(1))
 6323 2c0a 7F4F      		sbci r23,hi8(-(1))
 6324               	.L299:
 6325 2c0c 7093 0000 		sts (y1)+1,r23
 6326 2c10 6093 0000 		sts y1,r22
 6327               	.LM673:
 6328 2c14 1091 0000 		lds r17,letter
 6329 2c18 0091 0000 		lds r16,letter+1
 6330 2c1c 00C0      		rjmp .L292
 6331               	.L258:
 6332               	.LM674:
 6333 2c1e 0697      		sbiw r24,6
 6334 2c20 01F0      		breq .+2
 6335 2c22 00C0      		rjmp .L192
 6336               	.LM675:
 6337 2c24 8091 0000 		lds r24,letter
 6338 2c28 9091 0000 		lds r25,(letter)+1
 6339 2c2c 892B      		or r24,r25
 6340 2c2e 01F0      		breq .+2
 6341 2c30 00C0      		rjmp .L270
 6342               	.LM676:
 6343 2c32 8091 0000 		lds r24,moves
 6344 2c36 9091 0000 		lds r25,moves+1
 6345 2c3a 80FD      		sbrc r24,0
 6346 2c3c 00C0      		rjmp .L271
 6347               	.LM677:
 6348 2c3e 81E0      		ldi r24,lo8(1)
 6349 2c40 90E0      		ldi r25,hi8(1)
 6350 2c42 9093 0000 		sts (kill_black)+1,r25
 6351 2c46 8093 0000 		sts kill_black,r24
 6352 2c4a 00C0      		rjmp .L272
 6353               	.L271:
 6354               	.LM678:
 6355 2c4c 62E0      		ldi r22,lo8(2)
 6356 2c4e 70E0      		ldi r23,hi8(2)
 6357 2c50 0E94 0000 		call __divmodhi4
 6358 2c54 8130      		cpi r24,1
 6359 2c56 9105      		cpc r25,__zero_reg__
 6360 2c58 01F4      		brne .L272
 6361               	.LM679:
 6362 2c5a 9093 0000 		sts (kill_white)+1,r25
 6363 2c5e 8093 0000 		sts kill_white,r24
 6364               	.L272:
 6365               	.LM680:
 6366 2c62 81E0      		ldi r24,lo8(1)
 6367 2c64 90E0      		ldi r25,hi8(1)
 6368 2c66 9093 0000 		sts (hrook)+1,r25
 6369 2c6a 8093 0000 		sts hrook,r24
 6370               	.LM681:
 6371 2c6e 8091 0000 		lds r24,file
 6372 2c72 9091 0000 		lds r25,(file)+1
 6373 2c76 9093 0000 		sts (x2)+1,r25
 6374 2c7a 8093 0000 		sts x2,r24
 6375 2c7e 2091 0000 		lds r18,rank
 6376 2c82 3091 0000 		lds r19,(rank)+1
 6377 2c86 3093 0000 		sts (y2)+1,r19
 6378 2c8a 2093 0000 		sts y2,r18
 6379               	.LM682:
 6380 2c8e 8091 0000 		lds r24,file0
 6381 2c92 9091 0000 		lds r25,(file0)+1
 6382 2c96 9093 0000 		sts (x1)+1,r25
 6383 2c9a 8093 0000 		sts x1,r24
 6384 2c9e 6091 0000 		lds r22,rank0
 6385 2ca2 7091 0000 		lds r23,(rank0)+1
 6386 2ca6 7093 0000 		sts (y1)+1,r23
 6387 2caa 6093 0000 		sts y1,r22
 6388               	.LM683:
 6389 2cae 1091 0000 		lds r17,file0
 6390 2cb2 0091 0000 		lds r16,file0+1
 6391 2cb6 8091 0000 		lds r24,file
 6392 2cba 9091 0000 		lds r25,file+1
 6393 2cbe DC01      		movw r26,r24
 6394 2cc0 E3E0      		ldi r30,3
 6395 2cc2 AA0F      	1:	lsl r26
 6396 2cc4 BB1F      		rol r27
 6397 2cc6 EA95      		dec r30
 6398 2cc8 01F4      		brne 1b
 6399 2cca 880F      		lsl r24
 6400 2ccc 991F      		rol r25
 6401 2cce A80F      		add r26,r24
 6402 2cd0 B91F      		adc r27,r25
 6403 2cd2 A20F      		add r26,r18
 6404 2cd4 B31F      		adc r27,r19
 6405 2cd6 AA0F      		lsl r26
 6406 2cd8 BB1F      		rol r27
 6407 2cda AE01      		movw r20,r28
 6408 2cdc 4F5F      		subi r20,lo8(-(1))
 6409 2cde 5F4F      		sbci r21,hi8(-(1))
 6410 2ce0 A40F      		add r26,r20
 6411 2ce2 B51F      		adc r27,r21
 6412 2ce4 812F      		mov r24,r17
 6413 2ce6 902F      		mov r25,r16
 6414 2ce8 FC01      		movw r30,r24
 6415 2cea 33E0      		ldi r19,3
 6416 2cec EE0F      	1:	lsl r30
 6417 2cee FF1F      		rol r31
 6418 2cf0 3A95      		dec r19
 6419 2cf2 01F4      		brne 1b
 6420 2cf4 880F      		lsl r24
 6421 2cf6 991F      		rol r25
 6422 2cf8 E80F      		add r30,r24
 6423 2cfa F91F      		adc r31,r25
 6424 2cfc E60F      		add r30,r22
 6425 2cfe F71F      		adc r31,r23
 6426 2d00 EE0F      		lsl r30
 6427 2d02 FF1F      		rol r31
 6428 2d04 E40F      		add r30,r20
 6429 2d06 F51F      		adc r31,r21
 6430 2d08 8081      		ld r24,Z
 6431 2d0a 9181      		ldd r25,Z+1
 6432 2d0c 8D93      		st X+,r24
 6433 2d0e 9C93      		st X,r25
 6434               	.LM684:
 6435 2d10 812F      		mov r24,r17
 6436 2d12 902F      		mov r25,r16
 6437 2d14 9C01      		movw r18,r24
 6438 2d16 B3E0      		ldi r27,3
 6439 2d18 220F      	1:	lsl r18
 6440 2d1a 331F      		rol r19
 6441 2d1c BA95      		dec r27
 6442 2d1e 01F4      		brne 1b
 6443 2d20 880F      		lsl r24
 6444 2d22 991F      		rol r25
 6445 2d24 280F      		add r18,r24
 6446 2d26 391F      		adc r19,r25
 6447 2d28 260F      		add r18,r22
 6448 2d2a 371F      		adc r19,r23
 6449 2d2c 220F      		lsl r18
 6450 2d2e 331F      		rol r19
 6451 2d30 420F      		add r20,r18
 6452 2d32 531F      		adc r21,r19
 6453 2d34 FA01      		movw r30,r20
 6454 2d36 1182      		std Z+1,__zero_reg__
 6455 2d38 1082      		st Z,__zero_reg__
 6456               	.L270:
 6457               	.LM685:
 6458 2d3a 8091 0000 		lds r24,letter
 6459 2d3e 9091 0000 		lds r25,(letter)+1
 6460 2d42 0497      		sbiw r24,4
 6461 2d44 01F0      		breq .+2
 6462 2d46 00C0      		rjmp .L192
 6463               	.LM686:
 6464 2d48 8091 0000 		lds r24,moves
 6465 2d4c 9091 0000 		lds r25,moves+1
 6466 2d50 80FD      		sbrc r24,0
 6467 2d52 00C0      		rjmp .L273
 6468               	.LM687:
 6469 2d54 81E0      		ldi r24,lo8(1)
 6470 2d56 90E0      		ldi r25,hi8(1)
 6471 2d58 9093 0000 		sts (kill_black)+1,r25
 6472 2d5c 8093 0000 		sts kill_black,r24
 6473 2d60 00C0      		rjmp .L274
 6474               	.L273:
 6475               	.LM688:
 6476 2d62 62E0      		ldi r22,lo8(2)
 6477 2d64 70E0      		ldi r23,hi8(2)
 6478 2d66 0E94 0000 		call __divmodhi4
 6479 2d6a 8130      		cpi r24,1
 6480 2d6c 9105      		cpc r25,__zero_reg__
 6481 2d6e 01F4      		brne .L274
 6482               	.LM689:
 6483 2d70 9093 0000 		sts (kill_white)+1,r25
 6484 2d74 8093 0000 		sts kill_white,r24
 6485               	.L274:
 6486               	.LM690:
 6487 2d78 81E0      		ldi r24,lo8(1)
 6488 2d7a 90E0      		ldi r25,hi8(1)
 6489 2d7c 9093 0000 		sts (bishop)+1,r25
 6490 2d80 8093 0000 		sts bishop,r24
 6491               	.LM691:
 6492 2d84 8091 0000 		lds r24,file
 6493 2d88 9091 0000 		lds r25,(file)+1
 6494 2d8c 9093 0000 		sts (x2)+1,r25
 6495 2d90 8093 0000 		sts x2,r24
 6496 2d94 2091 0000 		lds r18,rank
 6497 2d98 3091 0000 		lds r19,(rank)+1
 6498 2d9c 3093 0000 		sts (y2)+1,r19
 6499 2da0 2093 0000 		sts y2,r18
 6500               	.LM692:
 6501 2da4 8091 0000 		lds r24,file0
 6502 2da8 9091 0000 		lds r25,(file0)+1
 6503 2dac 9093 0000 		sts (x1)+1,r25
 6504 2db0 8093 0000 		sts x1,r24
 6505 2db4 6091 0000 		lds r22,rank0
 6506 2db8 7091 0000 		lds r23,(rank0)+1
 6507 2dbc 7093 0000 		sts (y1)+1,r23
 6508 2dc0 6093 0000 		sts y1,r22
 6509               	.LM693:
 6510 2dc4 1091 0000 		lds r17,file0
 6511 2dc8 0091 0000 		lds r16,file0+1
 6512               	.L292:
 6513 2dcc 8091 0000 		lds r24,file
 6514 2dd0 9091 0000 		lds r25,file+1
 6515 2dd4 DC01      		movw r26,r24
 6516 2dd6 E3E0      		ldi r30,3
 6517 2dd8 AA0F      	1:	lsl r26
 6518 2dda BB1F      		rol r27
 6519 2ddc EA95      		dec r30
 6520 2dde 01F4      		brne 1b
 6521 2de0 880F      		lsl r24
 6522 2de2 991F      		rol r25
 6523 2de4 A80F      		add r26,r24
 6524 2de6 B91F      		adc r27,r25
 6525 2de8 A20F      		add r26,r18
 6526 2dea B31F      		adc r27,r19
 6527 2dec AA0F      		lsl r26
 6528 2dee BB1F      		rol r27
 6529 2df0 AE01      		movw r20,r28
 6530 2df2 4F5F      		subi r20,lo8(-(1))
 6531 2df4 5F4F      		sbci r21,hi8(-(1))
 6532 2df6 A40F      		add r26,r20
 6533 2df8 B51F      		adc r27,r21
 6534 2dfa 812F      		mov r24,r17
 6535 2dfc 902F      		mov r25,r16
 6536 2dfe FC01      		movw r30,r24
 6537 2e00 33E0      		ldi r19,3
 6538 2e02 EE0F      	1:	lsl r30
 6539 2e04 FF1F      		rol r31
 6540 2e06 3A95      		dec r19
 6541 2e08 01F4      		brne 1b
 6542 2e0a 880F      		lsl r24
 6543 2e0c 991F      		rol r25
 6544 2e0e E80F      		add r30,r24
 6545 2e10 F91F      		adc r31,r25
 6546 2e12 E60F      		add r30,r22
 6547 2e14 F71F      		adc r31,r23
 6548 2e16 EE0F      		lsl r30
 6549 2e18 FF1F      		rol r31
 6550 2e1a E40F      		add r30,r20
 6551 2e1c F51F      		adc r31,r21
 6552 2e1e 8081      		ld r24,Z
 6553 2e20 9181      		ldd r25,Z+1
 6554 2e22 8D93      		st X+,r24
 6555 2e24 9C93      		st X,r25
 6556               	.LM694:
 6557 2e26 812F      		mov r24,r17
 6558 2e28 902F      		mov r25,r16
 6559 2e2a 9C01      		movw r18,r24
 6560 2e2c 03E0      		ldi r16,3
 6561 2e2e 220F      	1:	lsl r18
 6562 2e30 331F      		rol r19
 6563 2e32 0A95      		dec r16
 6564 2e34 01F4      		brne 1b
 6565 2e36 880F      		lsl r24
 6566 2e38 991F      		rol r25
 6567 2e3a 280F      		add r18,r24
 6568 2e3c 391F      		adc r19,r25
 6569 2e3e 260F      		add r18,r22
 6570 2e40 371F      		adc r19,r23
 6571 2e42 220F      		lsl r18
 6572 2e44 331F      		rol r19
 6573 2e46 420F      		add r20,r18
 6574 2e48 531F      		adc r21,r19
 6575 2e4a FA01      		movw r30,r20
 6576               	.L283:
 6577 2e4c 1182      		std Z+1,__zero_reg__
 6578 2e4e 1082      		st Z,__zero_reg__
 6579               	.L192:
 6580               	.LM695:
 6581 2e50 81E0      		ldi r24,lo8(1)
 6582 2e52 60E0      		ldi r22,lo8(0)
 6583 2e54 0E94 0000 		call lcd_byte
 6584               	.LM696:
 6585 2e58 85E0      		ldi r24,lo8(5)
 6586 2e5a 90E0      		ldi r25,hi8(5)
 6587 2e5c 60E0      		ldi r22,lo8(0)
 6588 2e5e 70E0      		ldi r23,hi8(0)
 6589 2e60 40E0      		ldi r20,lo8(.LC1)
 6590 2e62 50E0      		ldi r21,hi8(.LC1)
 6591 2e64 0E94 0000 		call lcd_write_string_xy
 6592               	.LM697:
 6593 2e68 FE01      		movw r30,r28
 6594 2e6a E55A      		subi r30,lo8(-(91))
 6595 2e6c FF4F      		sbci r31,hi8(-(91))
 6596 2e6e 4081      		ld r20,Z
 6597 2e70 5181      		ldd r21,Z+1
 6598 2e72 82E0      		ldi r24,lo8(2)
 6599 2e74 90E0      		ldi r25,hi8(2)
 6600 2e76 61E0      		ldi r22,lo8(1)
 6601 2e78 70E0      		ldi r23,hi8(1)
 6602 2e7a 22E0      		ldi r18,lo8(2)
 6603 2e7c 30E0      		ldi r19,hi8(2)
 6604 2e7e 0E94 0000 		call lcd_write_int_xy
 6605               	.LM698:
 6606 2e82 8091 0000 		lds r24,file
 6607 2e86 9091 0000 		lds r25,file+1
 6608 2e8a FC01      		movw r30,r24
 6609 2e8c A3E0      		ldi r26,3
 6610 2e8e EE0F      	1:	lsl r30
 6611 2e90 FF1F      		rol r31
 6612 2e92 AA95      		dec r26
 6613 2e94 01F4      		brne 1b
 6614 2e96 880F      		lsl r24
 6615 2e98 991F      		rol r25
 6616 2e9a E80F      		add r30,r24
 6617 2e9c F91F      		adc r31,r25
 6618 2e9e 8091 0000 		lds r24,rank
 6619 2ea2 9091 0000 		lds r25,(rank)+1
 6620 2ea6 E80F      		add r30,r24
 6621 2ea8 F91F      		adc r31,r25
 6622 2eaa EE0F      		lsl r30
 6623 2eac FF1F      		rol r31
 6624 2eae EC0F      		add r30,r28
 6625 2eb0 FD1F      		adc r31,r29
 6626 2eb2 4181      		ldd r20,Z+1
 6627 2eb4 5281      		ldd r21,Z+2
 6628 2eb6 8CE0      		ldi r24,lo8(12)
 6629 2eb8 90E0      		ldi r25,hi8(12)
 6630 2eba 61E0      		ldi r22,lo8(1)
 6631 2ebc 70E0      		ldi r23,hi8(1)
 6632 2ebe 22E0      		ldi r18,lo8(2)
 6633 2ec0 30E0      		ldi r19,hi8(2)
 6634 2ec2 0E94 0000 		call lcd_write_int_xy
 6635               	.LM699:
 6636 2ec6 82E0      		ldi r24,lo8(2)
 6637 2ec8 90E0      		ldi r25,hi8(2)
 6638 2eca 0E94 0000 		call delay_sec
 6639               	.LM700:
 6640 2ece 81E0      		ldi r24,lo8(1)
 6641 2ed0 60E0      		ldi r22,lo8(0)
 6642 2ed2 0E94 0000 		call lcd_byte
 6643               	.LM701:
 6644 2ed6 4091 0000 		lds r20,x1
 6645 2eda 5091 0000 		lds r21,(x1)+1
 6646 2ede 82E0      		ldi r24,lo8(2)
 6647 2ee0 90E0      		ldi r25,hi8(2)
 6648 2ee2 60E0      		ldi r22,lo8(0)
 6649 2ee4 70E0      		ldi r23,hi8(0)
 6650 2ee6 21E0      		ldi r18,lo8(1)
 6651 2ee8 30E0      		ldi r19,hi8(1)
 6652 2eea 0E94 0000 		call lcd_write_int_xy
 6653               	.LM702:
 6654 2eee 4091 0000 		lds r20,y1
 6655 2ef2 5091 0000 		lds r21,(y1)+1
 6656 2ef6 8CE0      		ldi r24,lo8(12)
 6657 2ef8 90E0      		ldi r25,hi8(12)
 6658 2efa 60E0      		ldi r22,lo8(0)
 6659 2efc 70E0      		ldi r23,hi8(0)
 6660 2efe 21E0      		ldi r18,lo8(1)
 6661 2f00 30E0      		ldi r19,hi8(1)
 6662 2f02 0E94 0000 		call lcd_write_int_xy
 6663               	.LM703:
 6664 2f06 4091 0000 		lds r20,x2
 6665 2f0a 5091 0000 		lds r21,(x2)+1
 6666 2f0e 82E0      		ldi r24,lo8(2)
 6667 2f10 90E0      		ldi r25,hi8(2)
 6668 2f12 61E0      		ldi r22,lo8(1)
 6669 2f14 70E0      		ldi r23,hi8(1)
 6670 2f16 21E0      		ldi r18,lo8(1)
 6671 2f18 30E0      		ldi r19,hi8(1)
 6672 2f1a 0E94 0000 		call lcd_write_int_xy
 6673               	.LM704:
 6674 2f1e 4091 0000 		lds r20,y2
 6675 2f22 5091 0000 		lds r21,(y2)+1
 6676 2f26 8CE0      		ldi r24,lo8(12)
 6677 2f28 90E0      		ldi r25,hi8(12)
 6678 2f2a 61E0      		ldi r22,lo8(1)
 6679 2f2c 70E0      		ldi r23,hi8(1)
 6680 2f2e 21E0      		ldi r18,lo8(1)
 6681 2f30 30E0      		ldi r19,hi8(1)
 6682 2f32 0E94 0000 		call lcd_write_int_xy
 6683               	/* epilogue start */
 6684               	.LM705:
 6685 2f36 C853      		subi r28,lo8(-(200))
 6686 2f38 DF4F      		sbci r29,hi8(-(200))
 6687 2f3a 0FB6      		in __tmp_reg__,__SREG__
 6688 2f3c F894      		cli
 6689 2f3e DEBF      		out __SP_H__,r29
 6690 2f40 0FBE      		out __SREG__,__tmp_reg__
 6691 2f42 CDBF      		out __SP_L__,r28
 6692 2f44 CF91      		pop r28
 6693 2f46 DF91      		pop r29
 6694 2f48 1F91      		pop r17
 6695 2f4a 0F91      		pop r16
 6696 2f4c FF90      		pop r15
 6697 2f4e EF90      		pop r14
 6698 2f50 DF90      		pop r13
 6699 2f52 CF90      		pop r12
 6700 2f54 BF90      		pop r11
 6701 2f56 AF90      		pop r10
 6702 2f58 0895      		ret
 6703               	.LFE54:
 6705               	.global	retrieve_threshold
 6707               	retrieve_threshold:
 6708               	.LFB52:
 6709               	.LM706:
 6710               	/* prologue: function */
 6711               	/* frame size = 0 */
 6712               	.LBB304:
 6713               	.LM707:
 6714 2f5a 80E0      		ldi r24,lo8(0)
 6715 2f5c 90E0      		ldi r25,hi8(0)
 6716 2f5e 0E94 0000 		call __eerd_byte_m16
 6717 2f62 8093 0000 		sts threshold,r24
 6718 2f66 81E0      		ldi r24,lo8(1)
 6719 2f68 90E0      		ldi r25,hi8(1)
 6720 2f6a 0E94 0000 		call __eerd_byte_m16
 6721 2f6e 8093 0000 		sts threshold+1,r24
 6722 2f72 82E0      		ldi r24,lo8(2)
 6723 2f74 90E0      		ldi r25,hi8(2)
 6724 2f76 0E94 0000 		call __eerd_byte_m16
 6725 2f7a 8093 0000 		sts threshold+2,r24
 6726 2f7e 83E0      		ldi r24,lo8(3)
 6727 2f80 90E0      		ldi r25,hi8(3)
 6728 2f82 0E94 0000 		call __eerd_byte_m16
 6729 2f86 8093 0000 		sts threshold+3,r24
 6730               	/* epilogue start */
 6731               	.LBE304:
 6732               	.LM708:
 6733 2f8a 0895      		ret
 6734               	.LFE52:
 6736               	.global	set_threshold
 6738               	set_threshold:
 6739               	.LFB17:
 6740               	.LM709:
 6741 2f8c CF93      		push r28
 6742 2f8e DF93      		push r29
 6743               	/* prologue: function */
 6744               	/* frame size = 0 */
 6745               	.LM710:
 6746 2f90 40E0      		ldi r20,lo8(0)
 6747 2f92 50E0      		ldi r21,hi8(0)
 6748               	.L306:
 6749               	.LM711:
 6750 2f94 FA01      		movw r30,r20
 6751 2f96 E050      		subi r30,lo8(-(max))
 6752 2f98 F040      		sbci r31,hi8(-(max))
 6753 2f9a 9081      		ld r25,Z
 6754               	.LM712:
 6755 2f9c DA01      		movw r26,r20
 6756 2f9e A050      		subi r26,lo8(-(threshold))
 6757 2fa0 B040      		sbci r27,hi8(-(threshold))
 6758 2fa2 292F      		mov r18,r25
 6759 2fa4 30E0      		ldi r19,lo8(0)
 6760 2fa6 FA01      		movw r30,r20
 6761 2fa8 E050      		subi r30,lo8(-(min))
 6762 2faa F040      		sbci r31,hi8(-(min))
 6763 2fac 8081      		ld r24,Z
 6764 2fae 281B      		sub r18,r24
 6765 2fb0 3109      		sbc r19,__zero_reg__
 6766 2fb2 37FF      		sbrs r19,7
 6767 2fb4 00C0      		rjmp .L305
 6768 2fb6 3095      		com r19
 6769 2fb8 2195      		neg r18
 6770 2fba 3F4F      		sbci r19,lo8(-1)
 6771               	.L305:
 6772 2fbc 822F      		mov r24,r18
 6773 2fbe 8695      		lsr r24
 6774 2fc0 890F      		add r24,r25
 6775 2fc2 8C93      		st X,r24
 6776 2fc4 4F5F      		subi r20,lo8(-(1))
 6777 2fc6 5F4F      		sbci r21,hi8(-(1))
 6778               	.LM713:
 6779 2fc8 4430      		cpi r20,4
 6780 2fca 5105      		cpc r21,__zero_reg__
 6781 2fcc 01F4      		brne .L306
 6782 2fce C0E0      		ldi r28,lo8(0)
 6783 2fd0 D0E0      		ldi r29,hi8(0)
 6784               	.LVL109:
 6785               	.L307:
 6786               	.LBB305:
 6787               	.LM714:
 6788 2fd2 FE01      		movw r30,r28
 6789 2fd4 E050      		subi r30,lo8(-(threshold))
 6790 2fd6 F040      		sbci r31,hi8(-(threshold))
 6791 2fd8 CE01      		movw r24,r28
 6792 2fda 6081      		ld r22,Z
 6793 2fdc 0E94 0000 		call __eewr_byte_m16
 6794               	.LM715:
 6795 2fe0 2196      		adiw r28,1
 6796 2fe2 C430      		cpi r28,4
 6797 2fe4 D105      		cpc r29,__zero_reg__
 6798 2fe6 01F4      		brne .L307
 6799               	/* epilogue start */
 6800               	.LBE305:
 6801               	.LM716:
 6802 2fe8 DF91      		pop r29
 6803 2fea CF91      		pop r28
 6804               	.LVL110:
 6805 2fec 0895      		ret
 6806               	.LFE17:
 6808               	.global	sensorbyte
 6809               	.global	sensorbyte
 6810               		.section .bss
 6813               	sensorbyte:
 6814 0000 00        		.skip 1,0
 6815               	.global	moves
 6816               	.global	moves
 6819               	moves:
 6820 0001 0000      		.skip 2,0
 6821               	.global	pawn
 6822               	.global	pawn
 6825               	pawn:
 6826 0003 0000      		.skip 2,0
 6827               	.global	hrook
 6828               	.global	hrook
 6831               	hrook:
 6832 0005 0000      		.skip 2,0
 6833               	.global	bishop
 6834               	.global	bishop
 6837               	bishop:
 6838 0007 0000      		.skip 2,0
 6839               	.global	queen_hrook
 6840               	.global	queen_hrook
 6843               	queen_hrook:
 6844 0009 0000      		.skip 2,0
 6845               	.global	queen_bishop
 6846               	.global	queen_bishop
 6849               	queen_bishop:
 6850 000b 0000      		.skip 2,0
 6851               	.global	kill_white
 6852               	.global	kill_white
 6855               	kill_white:
 6856 000d 0000      		.skip 2,0
 6857               	.global	kill_black
 6858               	.global	kill_black
 6861               	kill_black:
 6862 000f 0000      		.skip 2,0
 6863               	.global	filew1
 6864               		.data
 6867               	filew1:
 6868 000d 0100      		.word	1
 6869               	.global	rankw1
 6872               	rankw1:
 6873 000f 0100      		.word	1
 6874               	.global	filew8
 6877               	filew8:
 6878 0011 0800      		.word	8
 6879               	.global	rankw8
 6882               	rankw8:
 6883 0013 0100      		.word	1
 6884               	.global	fileb1
 6887               	fileb1:
 6888 0015 0100      		.word	1
 6889               	.global	rankb1
 6892               	rankb1:
 6893 0017 0800      		.word	8
 6894               	.global	fileb8
 6897               	fileb8:
 6898 0019 0800      		.word	8
 6899               	.global	rankb8
 6902               	rankb8:
 6903 001b 0800      		.word	8
 6904               	.global	filew3
 6907               	filew3:
 6908 001d 0300      		.word	3
 6909               	.global	rankw3
 6912               	rankw3:
 6913 001f 0100      		.word	1
 6914               	.global	filew6
 6917               	filew6:
 6918 0021 0600      		.word	6
 6919               	.global	rankw6
 6922               	rankw6:
 6923 0023 0100      		.word	1
 6924               	.global	fileb3
 6927               	fileb3:
 6928 0025 0300      		.word	3
 6929               	.global	rankb3
 6932               	rankb3:
 6933 0027 0800      		.word	8
 6934               	.global	fileb6
 6937               	fileb6:
 6938 0029 0600      		.word	6
 6939               	.global	rankb6
 6942               	rankb6:
 6943 002b 0800      		.word	8
 6944               	.global	bc1_color
 6945               	.global	bc1_color
 6946               		.section .bss
 6949               	bc1_color:
 6950 0011 0000      		.skip 2,0
 6951               	.global	bf1_color
 6952               		.data
 6955               	bf1_color:
 6956 002d 0100      		.word	1
 6957               	.global	bc8_color
 6960               	bc8_color:
 6961 002f 0100      		.word	1
 6962               	.global	bf8_color
 6963               	.global	bf8_color
 6964               		.section .bss
 6967               	bf8_color:
 6968 0013 0000      		.skip 2,0
 6969               	.global	filew5
 6970               		.data
 6973               	filew5:
 6974 0031 0500      		.word	5
 6975               	.global	rankw5
 6978               	rankw5:
 6979 0033 0100      		.word	1
 6980               	.global	fileb5
 6983               	fileb5:
 6984 0035 0500      		.word	5
 6985               	.global	rankb5
 6988               	rankb5:
 6989 0037 0800      		.word	8
 6990               	.global	ke1_color
 6991               	.global	ke1_color
 6992               		.section .bss
 6995               	ke1_color:
 6996 0015 0000      		.skip 2,0
 6997               	.global	ke8_color
 6998               		.data
 7001               	ke8_color:
 7002 0039 0100      		.word	1
 7003               	.global	filew4
 7006               	filew4:
 7007 003b 0400      		.word	4
 7008               	.global	rankw4
 7011               	rankw4:
 7012 003d 0100      		.word	1
 7013               	.global	fileb4
 7016               	fileb4:
 7017 003f 0400      		.word	4
 7018               	.global	rankb4
 7021               	rankb4:
 7022 0041 0800      		.word	8
 7023               	.global	qd1_color
 7026               	qd1_color:
 7027 0043 0100      		.word	1
 7028               	.global	qd8_color
 7029               	.global	qd8_color
 7030               		.section .bss
 7033               	qd8_color:
 7034 0017 0000      		.skip 2,0
 7035               		.data
 7038               	C.22.2010:
 7039 0045 0000      		.word	0
 7040 0047 0000      		.word	0
 7041 0049 0000      		.word	0
 7042 004b 0000      		.word	0
 7043 004d 0000      		.word	0
 7044 004f 0000      		.word	0
 7045 0051 0000      		.word	0
 7046 0053 0000      		.word	0
 7047 0055 0000      		.word	0
 7048 0057 0000      		.word	0
 7049 0059 0000      		.word	0
 7050 005b 0B00      		.word	11
 7051 005d 0C00      		.word	12
 7052 005f 0000      		.word	0
 7053 0061 0000      		.word	0
 7054 0063 0000      		.word	0
 7055 0065 0000      		.word	0
 7056 0067 0700      		.word	7
 7057 0069 1200      		.word	18
 7058 006b 0000      		.word	0
 7059 006d 0000      		.word	0
 7060 006f 1500      		.word	21
 7061 0071 0C00      		.word	12
 7062 0073 0000      		.word	0
 7063 0075 0000      		.word	0
 7064 0077 0000      		.word	0
 7065 0079 0000      		.word	0
 7066 007b 0700      		.word	7
 7067 007d 1C00      		.word	28
 7068 007f 0000      		.word	0
 7069 0081 0000      		.word	0
 7070 0083 1F00      		.word	31
 7071 0085 0C00      		.word	12
 7072 0087 0000      		.word	0
 7073 0089 0000      		.word	0
 7074 008b 0000      		.word	0
 7075 008d 0000      		.word	0
 7076 008f 0700      		.word	7
 7077 0091 2600      		.word	38
 7078 0093 0000      		.word	0
 7079 0095 0000      		.word	0
 7080 0097 2900      		.word	41
 7081 0099 0C00      		.word	12
 7082 009b 0000      		.word	0
 7083 009d 0000      		.word	0
 7084 009f 0000      		.word	0
 7085 00a1 0000      		.word	0
 7086 00a3 0700      		.word	7
 7087 00a5 3000      		.word	48
 7088 00a7 0000      		.word	0
 7089 00a9 0000      		.word	0
 7090 00ab 3300      		.word	51
 7091 00ad 0C00      		.word	12
 7092 00af 0000      		.word	0
 7093 00b1 0000      		.word	0
 7094 00b3 0000      		.word	0
 7095 00b5 0000      		.word	0
 7096 00b7 0700      		.word	7
 7097 00b9 3A00      		.word	58
 7098 00bb 0000      		.word	0
 7099 00bd 0000      		.word	0
 7100 00bf 3D00      		.word	61
 7101 00c1 0C00      		.word	12
 7102 00c3 0000      		.word	0
 7103 00c5 0000      		.word	0
 7104 00c7 0000      		.word	0
 7105 00c9 0000      		.word	0
 7106 00cb 0700      		.word	7
 7107 00cd 4400      		.word	68
 7108 00cf 0000      		.word	0
 7109 00d1 0000      		.word	0
 7110 00d3 4700      		.word	71
 7111 00d5 0C00      		.word	12
 7112 00d7 0000      		.word	0
 7113 00d9 0000      		.word	0
 7114 00db 0000      		.word	0
 7115 00dd 0000      		.word	0
 7116 00df 0700      		.word	7
 7117 00e1 4E00      		.word	78
 7118 00e3 0000      		.word	0
 7119 00e5 0000      		.word	0
 7120 00e7 5100      		.word	81
 7121 00e9 0C00      		.word	12
 7122 00eb 0000      		.word	0
 7123 00ed 0000      		.word	0
 7124 00ef 0000      		.word	0
 7125 00f1 0000      		.word	0
 7126 00f3 0700      		.word	7
 7127 00f5 5800      		.word	88
 7128 00f7 0000      		.word	0
 7129 00f9 0000      		.word	0
 7130 00fb 0000      		.word	0
 7131 00fd 0000      		.word	0
 7132 00ff 0000      		.word	0
 7133 0101 0000      		.word	0
 7134 0103 0000      		.word	0
 7135 0105 0000      		.word	0
 7136 0107 0000      		.word	0
 7137 0109 0000      		.word	0
 7138 010b 0000      		.word	0
 7139               		.comm min,4,1
 7140               		.comm max,4,1
 7141               		.comm threshold,4,1
 7142               		.comm x1,2,1
 7143               		.comm x2,2,1
 7144               		.comm y1,2,1
 7145               		.comm y2,2,1
 7146               		.comm len,2,1
 7147               		.comm letter,2,1
 7148               		.comm file,2,1
 7149               		.comm rank,2,1
 7150               		.comm file0,2,1
 7151               		.comm rank0,2,1
 7152               		.comm color,2,1
 7553               	.Letext0:
DEFINED SYMBOLS
                            *ABS*:00000000 main.c
C:\Users\dell\AppData\Local\Temp/ccZun4x7.s:2      *ABS*:0000003f __SREG__
C:\Users\dell\AppData\Local\Temp/ccZun4x7.s:3      *ABS*:0000003e __SP_H__
C:\Users\dell\AppData\Local\Temp/ccZun4x7.s:4      *ABS*:0000003d __SP_L__
C:\Users\dell\AppData\Local\Temp/ccZun4x7.s:5      *ABS*:00000034 __CCP__
C:\Users\dell\AppData\Local\Temp/ccZun4x7.s:6      *ABS*:00000000 __tmp_reg__
C:\Users\dell\AppData\Local\Temp/ccZun4x7.s:7      *ABS*:00000001 __zero_reg__
C:\Users\dell\AppData\Local\Temp/ccZun4x7.s:18     .text:00000000 port_init
C:\Users\dell\AppData\Local\Temp/ccZun4x7.s:47     .text:00000014 pwm1_init
C:\Users\dell\AppData\Local\Temp/ccZun4x7.s:89     .text:00000038 adc_init
C:\Users\dell\AppData\Local\Temp/ccZun4x7.s:114    .text:0000004a adc_start
C:\Users\dell\AppData\Local\Temp/ccZun4x7.s:144    .text:0000005c delay_sec
C:\Users\dell\AppData\Local\Temp/ccZun4x7.s:208    .text:0000008e delay_millisec
C:\Users\dell\AppData\Local\Temp/ccZun4x7.s:343    .text:00000138 delay_microsec
C:\Users\dell\AppData\Local\Temp/ccZun4x7.s:544    .text:0000023e check_sensors
C:\Users\dell\AppData\Local\Temp/ccZun4x7.s:6813   .bss:00000000 sensorbyte
                            *COM*:00000004 threshold
C:\Users\dell\AppData\Local\Temp/ccZun4x7.s:602    .text:00000294 calibrate_black
                            *COM*:00000004 max
C:\Users\dell\AppData\Local\Temp/ccZun4x7.s:656    .text:000002d4 calibrate_white
                            *COM*:00000004 min
C:\Users\dell\AppData\Local\Temp/ccZun4x7.s:710    .text:00000314 flick
C:\Users\dell\AppData\Local\Temp/ccZun4x7.s:752    .text:00000344 set_pwm1a
C:\Users\dell\AppData\Local\Temp/ccZun4x7.s:769    .text:0000034a set_pwm1b
C:\Users\dell\AppData\Local\Temp/ccZun4x7.s:786    .text:00000350 lcd_busy_loop
C:\Users\dell\AppData\Local\Temp/ccZun4x7.s:971    .text:000003a6 lcd_byte
C:\Users\dell\AppData\Local\Temp/ccZun4x7.s:1110   .text:000003f6 lcd_init
C:\Users\dell\AppData\Local\Temp/ccZun4x7.s:1246   .text:00000456 lcd_write_string
C:\Users\dell\AppData\Local\Temp/ccZun4x7.s:1279   .text:00000472 lcd_write_int
C:\Users\dell\AppData\Local\Temp/ccZun4x7.s:1410   .text:0000052e lcd_goto_xy
C:\Users\dell\AppData\Local\Temp/ccZun4x7.s:1437   .text:00000540 lcd_write_string_xy
C:\Users\dell\AppData\Local\Temp/ccZun4x7.s:1462   .text:00000556 lcd_write_int_xy
C:\Users\dell\AppData\Local\Temp/ccZun4x7.s:1494   .text:00000578 usart_init
C:\Users\dell\AppData\Local\Temp/ccZun4x7.s:1521   .text:0000058c usart_transmit_char
C:\Users\dell\AppData\Local\Temp/ccZun4x7.s:1540   .text:00000594 usart_transmit_string
C:\Users\dell\AppData\Local\Temp/ccZun4x7.s:1574   .text:000005a8 usart_transmit_newline
C:\Users\dell\AppData\Local\Temp/ccZun4x7.s:1608   .text:000005ba usart_receive_char
C:\Users\dell\AppData\Local\Temp/ccZun4x7.s:1626   .text:000005c2 bot_motion_init
C:\Users\dell\AppData\Local\Temp/ccZun4x7.s:1641   .text:000005c8 bot_left_forward
C:\Users\dell\AppData\Local\Temp/ccZun4x7.s:1661   .text:000005d2 bot_left_backward
C:\Users\dell\AppData\Local\Temp/ccZun4x7.s:1681   .text:000005dc bot_right_forward
C:\Users\dell\AppData\Local\Temp/ccZun4x7.s:1701   .text:000005e6 bot_left
C:\Users\dell\AppData\Local\Temp/ccZun4x7.s:1725   .text:000005f0 bot_right
C:\Users\dell\AppData\Local\Temp/ccZun4x7.s:1749   .text:000005fa bot_right_backward
C:\Users\dell\AppData\Local\Temp/ccZun4x7.s:1769   .text:00000604 bot_forward
C:\Users\dell\AppData\Local\Temp/ccZun4x7.s:1789   .text:0000060e bot_backward
C:\Users\dell\AppData\Local\Temp/ccZun4x7.s:1809   .text:00000618 bot_spot_left
C:\Users\dell\AppData\Local\Temp/ccZun4x7.s:1829   .text:00000622 bot_spot_right
C:\Users\dell\AppData\Local\Temp/ccZun4x7.s:1849   .text:0000062c bot_stop
C:\Users\dell\AppData\Local\Temp/ccZun4x7.s:1869   .text:00000636 bot_brake
C:\Users\dell\AppData\Local\Temp/ccZun4x7.s:1889   .text:00000640 switch_init
C:\Users\dell\AppData\Local\Temp/ccZun4x7.s:1909   .text:0000064e pressed_switch0
C:\Users\dell\AppData\Local\Temp/ccZun4x7.s:1929   .text:0000065e pressed_switch1
C:\Users\dell\AppData\Local\Temp/ccZun4x7.s:1951   .text:00000672 pressed_switch2
C:\Users\dell\AppData\Local\Temp/ccZun4x7.s:1975   .text:0000068a pressed_switch3
C:\Users\dell\AppData\Local\Temp/ccZun4x7.s:2000   .text:000006a4 check_color
                            *COM*:00000002 file
                            *COM*:00000002 rank
                            *COM*:00000002 color
C:\Users\dell\AppData\Local\Temp/ccZun4x7.s:6973   .data:00000031 filew5
C:\Users\dell\AppData\Local\Temp/ccZun4x7.s:6978   .data:00000033 rankw5
C:\Users\dell\AppData\Local\Temp/ccZun4x7.s:6995   .bss:00000015 ke1_color
C:\Users\dell\AppData\Local\Temp/ccZun4x7.s:6983   .data:00000035 fileb5
C:\Users\dell\AppData\Local\Temp/ccZun4x7.s:6988   .data:00000037 rankb5
C:\Users\dell\AppData\Local\Temp/ccZun4x7.s:7001   .data:00000039 ke8_color
C:\Users\dell\AppData\Local\Temp/ccZun4x7.s:7006   .data:0000003b filew4
C:\Users\dell\AppData\Local\Temp/ccZun4x7.s:7011   .data:0000003d rankw4
C:\Users\dell\AppData\Local\Temp/ccZun4x7.s:7026   .data:00000043 qd1_color
C:\Users\dell\AppData\Local\Temp/ccZun4x7.s:7016   .data:0000003f fileb4
C:\Users\dell\AppData\Local\Temp/ccZun4x7.s:7021   .data:00000041 rankb4
C:\Users\dell\AppData\Local\Temp/ccZun4x7.s:7033   .bss:00000017 qd8_color
C:\Users\dell\AppData\Local\Temp/ccZun4x7.s:2145   .text:000007dc main
C:\Users\dell\AppData\Local\Temp/ccZun4x7.s:7038   .data:00000045 C.22.2010
                            *COM*:00000002 len
                            *COM*:00000002 letter
C:\Users\dell\AppData\Local\Temp/ccZun4x7.s:6825   .bss:00000003 pawn
C:\Users\dell\AppData\Local\Temp/ccZun4x7.s:6819   .bss:00000001 moves
                            *COM*:00000002 x2
                            *COM*:00000002 y2
                            *COM*:00000002 x1
                            *COM*:00000002 y1
C:\Users\dell\AppData\Local\Temp/ccZun4x7.s:6831   .bss:00000005 hrook
C:\Users\dell\AppData\Local\Temp/ccZun4x7.s:6867   .data:0000000d filew1
C:\Users\dell\AppData\Local\Temp/ccZun4x7.s:6872   .data:0000000f rankw1
C:\Users\dell\AppData\Local\Temp/ccZun4x7.s:6877   .data:00000011 filew8
C:\Users\dell\AppData\Local\Temp/ccZun4x7.s:6882   .data:00000013 rankw8
C:\Users\dell\AppData\Local\Temp/ccZun4x7.s:6887   .data:00000015 fileb1
C:\Users\dell\AppData\Local\Temp/ccZun4x7.s:6892   .data:00000017 rankb1
C:\Users\dell\AppData\Local\Temp/ccZun4x7.s:6897   .data:00000019 fileb8
C:\Users\dell\AppData\Local\Temp/ccZun4x7.s:6902   .data:0000001b rankb8
C:\Users\dell\AppData\Local\Temp/ccZun4x7.s:6837   .bss:00000007 bishop
C:\Users\dell\AppData\Local\Temp/ccZun4x7.s:6949   .bss:00000011 bc1_color
C:\Users\dell\AppData\Local\Temp/ccZun4x7.s:6912   .data:0000001f rankw3
C:\Users\dell\AppData\Local\Temp/ccZun4x7.s:6907   .data:0000001d filew3
C:\Users\dell\AppData\Local\Temp/ccZun4x7.s:6955   .data:0000002d bf1_color
C:\Users\dell\AppData\Local\Temp/ccZun4x7.s:6922   .data:00000023 rankw6
C:\Users\dell\AppData\Local\Temp/ccZun4x7.s:6917   .data:00000021 filew6
C:\Users\dell\AppData\Local\Temp/ccZun4x7.s:6960   .data:0000002f bc8_color
C:\Users\dell\AppData\Local\Temp/ccZun4x7.s:6932   .data:00000027 rankb3
C:\Users\dell\AppData\Local\Temp/ccZun4x7.s:6927   .data:00000025 fileb3
C:\Users\dell\AppData\Local\Temp/ccZun4x7.s:6967   .bss:00000013 bf8_color
C:\Users\dell\AppData\Local\Temp/ccZun4x7.s:6942   .data:0000002b rankb6
C:\Users\dell\AppData\Local\Temp/ccZun4x7.s:6937   .data:00000029 fileb6
C:\Users\dell\AppData\Local\Temp/ccZun4x7.s:6843   .bss:00000009 queen_hrook
C:\Users\dell\AppData\Local\Temp/ccZun4x7.s:6849   .bss:0000000b queen_bishop
                            *COM*:00000002 file0
                            *COM*:00000002 rank0
C:\Users\dell\AppData\Local\Temp/ccZun4x7.s:6861   .bss:0000000f kill_black
C:\Users\dell\AppData\Local\Temp/ccZun4x7.s:6855   .bss:0000000d kill_white
C:\Users\dell\AppData\Local\Temp/ccZun4x7.s:6707   .text:00002f5a retrieve_threshold
C:\Users\dell\AppData\Local\Temp/ccZun4x7.s:6738   .text:00002f8c set_threshold

UNDEFINED SYMBOLS
__floatsisf
__mulsf3
__ltsf2
__gtsf2
__fixunssfsi
__divsf3
__divmodhi4
__eerd_byte_m16
__eewr_byte_m16
__do_copy_data
__do_clear_bss
